

Microchip MPLAB XC8 Assembler V2.32 build 20210201212658 
                                                                                               Fri Apr 16 15:11:07 2021

Microchip MPLAB XC8 C Compiler v2.32 (Free license) build 20210201212658 Og1 
     1                           	processor	18F57Q43
     2                           	fnconf	rparam,??,?,0
     3                           	pagewidth 120
     4                           	opt	flic
     5                           	psect	idataCOMRAM,global,class=CODE,delta=1,noexec
     6                           	psect	mediumconst,global,reloc=2,class=MEDIUMCONST,delta=1,noexec
     7                           	psect	cinit,global,reloc=2,class=CODE,delta=1
     8                           	psect	bssCOMRAM,global,class=COMRAM,space=1,delta=1,lowdata,noexec
     9                           	psect	dataCOMRAM,global,class=COMRAM,space=1,delta=1,lowdata,noexec
    10                           	psect	bssBIGRAM,global,class=BIGRAM,space=1,delta=1,noexec
    11                           	psect	cstackCOMRAM,global,class=COMRAM,space=1,delta=1,lowdata,noexec
    12                           	psect	text0,global,reloc=2,class=CODE,delta=1
    13                           	psect	text1,global,reloc=2,class=CODE,delta=1
    14                           	psect	text2,global,reloc=2,class=CODE,delta=1
    15                           	psect	text3,global,reloc=2,class=CODE,delta=1
    16                           	psect	text4,global,reloc=2,class=CODE,delta=1
    17                           	psect	text5,global,reloc=2,class=CODE,delta=1
    18                           	psect	text6,global,reloc=2,class=CODE,delta=1
    19                           	psect	text7,global,reloc=2,class=CODE,delta=1
    20                           	psect	text8,global,reloc=2,class=CODE,delta=1
    21                           	psect	text9,global,reloc=2,class=CODE,delta=1
    22                           	psect	text10,global,reloc=2,class=CODE,delta=1
    23                           	psect	text11,global,reloc=2,class=CODE,delta=1
    24                           	psect	text12,global,reloc=2,class=CODE,delta=1
    25                           	psect	text13,global,reloc=2,class=CODE,delta=1
    26                           	psect	text14,global,reloc=2,class=CODE,delta=1
    27                           	psect	text15,global,reloc=2,class=CODE,delta=1
    28                           	psect	text16,global,reloc=2,class=CODE,delta=1
    29                           	psect	text17,global,reloc=2,class=CODE,delta=1
    30                           	psect	text18,global,reloc=2,class=CODE,delta=1
    31                           	psect	text19,global,reloc=2,class=CODE,delta=1
    32                           	psect	text20,global,reloc=2,class=CODE,delta=1
    33                           	psect	text21,global,reloc=2,class=CODE,delta=1
    34                           	psect	text22,global,reloc=2,class=CODE,delta=1
    35                           	psect	text23,global,reloc=2,class=CODE,delta=1
    36                           	psect	text24,global,reloc=2,class=CODE,delta=1
    37                           	psect	text25,global,reloc=2,class=CODE,delta=1
    38                           	psect	text26,global,reloc=2,class=CODE,delta=1
    39                           	psect	text27,global,reloc=2,class=CODE,delta=1
    40                           	psect	text28,global,reloc=2,class=CODE,delta=1
    41                           	psect	text29,global,reloc=2,class=CODE,delta=1
    42                           	psect	text30,global,reloc=2,class=CODE,delta=1,group=1
    43                           	psect	text31,global,reloc=2,class=CODE,delta=1
    44                           	psect	text32,global,reloc=2,class=CODE,delta=1
    45                           	psect	text33,global,reloc=2,class=CODE,delta=1,group=1
    46                           	psect	text34,global,reloc=2,class=CODE,delta=1
    47                           	psect	text35,global,reloc=2,class=CODE,delta=1
    48                           	psect	text36,global,reloc=2,class=CODE,delta=1
    49                           	psect	text37,global,reloc=2,class=CODE,delta=1
    50                           	psect	text38,global,reloc=2,class=CODE,delta=1
    51                           	psect	text39,global,reloc=2,class=CODE,delta=1
    52                           	psect	text40,global,reloc=2,class=CODE,delta=1
    53                           	psect	text41,global,reloc=2,class=CODE,delta=1
    54                           	psect	text42,global,reloc=2,class=CODE,delta=1
    55                           	psect	text43,global,reloc=2,class=CODE,delta=1
    56                           	psect	text44,global,reloc=2,class=CODE,delta=1
    57                           	psect	text45,global,reloc=2,class=CODE,delta=1
    58                           	psect	text46,global,reloc=2,class=CODE,delta=1
    59                           	psect	text47,global,reloc=2,class=CODE,delta=1
    60                           	psect	text48,global,reloc=2,class=CODE,delta=1
    61                           	psect	text49,global,reloc=2,class=CODE,delta=1
    62                           	psect	text50,global,reloc=2,class=CODE,delta=1
    63                           	psect	text51,global,reloc=2,class=CODE,delta=1
    64                           	psect	text52,global,reloc=2,class=CODE,delta=1
    65                           	psect	intsave_regs,global,class=BIGRAM,space=1,delta=1,noexec
    66                           	psect	text53,global,reloc=2,class=CODE,delta=1
    67                           	psect	rparam,global,class=COMRAM,space=1,delta=1,noexec
    68                           	psect	idloc,global,abs,ovrld,class=IDLOC,space=5,delta=1,noexec
    69                           	psect	config,global,abs,ovrld,class=CONFIG,space=4,delta=1,noexec
    70  0000                     
    71                           ; Version 2.30
    72                           ; Generated 20/08/2020 GMT
    73                           ; 
    74                           ; Copyright © 2020, Microchip Technology Inc. and its subsidiaries ("Microchip")
    75                           ; All rights reserved.
    76                           ; 
    77                           ; This software is developed by Microchip Technology Inc. and its subsidiaries ("Microch
      +                          ip").
    78                           ; 
    79                           ; Redistribution and use in source and binary forms, with or without modification, are
    80                           ; permitted provided that the following conditions are met:
    81                           ; 
    82                           ;     1. Redistributions of source code must retain the above copyright notice, this lis
      +                          t of
    83                           ;        conditions and the following disclaimer.
    84                           ; 
    85                           ;     2. Redistributions in binary form must reproduce the above copyright notice, this 
      +                          list
    86                           ;        of conditions and the following disclaimer in the documentation and/or other
    87                           ;        materials provided with the distribution. Publication is not required when
    88                           ;        this file is used in an embedded application.
    89                           ; 
    90                           ;     3. Microchip's name may not be used to endorse or promote products derived from th
      +                          is
    91                           ;        software without specific prior written permission.
    92                           ; 
    93                           ; THIS SOFTWARE IS PROVIDED BY MICROCHIP "AS IS" AND ANY EXPRESS OR IMPLIED WARRANTIES,
    94                           ; INCLUDING, BUT NOT LIMITED TO, THE IMPLIED WARRANTIES OF MERCHANTABILITY AND FITNESS F
      +                          OR
    95                           ; PURPOSE ARE DISCLAIMED.  IN NO EVENT SHALL MICROCHIP BE LIABLE FOR ANY DIRECT, INDIREC
      +                          T,
    96                           ; INCIDENTAL, SPECIAL, EXEMPLARY, OR CONSEQUENTIAL DAMAGES (INCLUDING BUT NOT LIMITED TO
    97                           ; PROCUREMENT OF SUBSTITUTE GOODS OR SERVICES; LOSS OF USE, DATA OR PROFITS; OR BUSINESS
    98                           ; INTERRUPTION) HOWSOEVER CAUSED AND ON ANY THEORY OF LIABILITY, WHETHER IN CONTRACT, ST
      +                          RICT
    99                           ; LIABILITY, OR TORT (INCLUDING NEGLIGENCE OR OTHERWISE) ARISING IN ANY WAY OUT OF THE U
      +                          SE OF
   100                           ; THIS SOFTWARE, EVEN IF ADVISED OF THE POSSIBILITY OF SUCH DAMAGE.
   101                           ; 
   102                           ; 
   103                           ; Code-generator required, PIC18F57Q43 Definitions
   104                           ; 
   105                           ; SFR Addresses
   106  0000                     
   107 ;; Function _SPI1_ExchangeBlock is unused but had its address taken
   108  0000                     
   109 ;; Function _SPI1_ReadBlock is unused but had its address taken
   110  0000                     
   111 ;; Function _SPI1_WriteByte is unused but had its address taken
   112  0000                     
   113 ;; Function _SPI1_ReadByte is unused but had its address taken
   114  0000                     
   115                           	psect	idataCOMRAM
   116  01190A                     __pidataCOMRAM:
   117                           	callstack 0
   118                           
   119                           ;initializer for oledC_example@shift
   120  01190A  E8                 	db	232
   121                           
   122                           	psect	mediumconst
   123  00FC74                     __pmediumconst:
   124                           	callstack 0
   125  00FC74  00                 	db	0
   126  00FC75                     _spiMaster:
   127                           	callstack 0
   128  00FC75  02                 	db	low _SPI1_Close
   129  00FC76  19                 	db	high _SPI1_Close
   130  00FC77  01                 	db	low (_SPI1_Close shr (0+16))
   131  00FC78  FA                 	db	low _oledC_open
   132  00FC79  18                 	db	high _oledC_open
   133  00FC7A  01                 	db	low (_oledC_open shr (0+16))
   134  00FC7B  4A                 	db	low _SPI1_ExchangeByte
   135  00FC7C  18                 	db	high _SPI1_ExchangeByte
   136  00FC7D  01                 	db	low (_SPI1_ExchangeByte shr (0+16))
   137  00FC7E  00                 	db	0
   138  00FC7F  00                 	db	0
   139  00FC80  00                 	db	0
   140  00FC81  50                 	db	low _SPI1_WriteBlock
   141  00FC82  16                 	db	high _SPI1_WriteBlock
   142  00FC83  01                 	db	low (_SPI1_WriteBlock shr (0+16))
   143  00FC84  00                 	db	0
   144  00FC85  00                 	db	0
   145  00FC86  00                 	db	0
   146  00FC87  00                 	db	0
   147  00FC88  00                 	db	0
   148  00FC89  00                 	db	0
   149  00FC8A  00                 	db	0
   150  00FC8B  00                 	db	0
   151  00FC8C  00                 	db	0
   152  00FC8D  00                 	db	0
   153  00FC8E  00                 	db	0
   154  00FC8F  00                 	db	0
   155  00FC90  00                 	db	0
   156  00FC91  00                 	db	0
   157  00FC92  00                 	db	0
   158  00FC93                     __end_of_spiMaster:
   159                           	callstack 0
   160  00FC93                     _spi1_configuration:
   161                           	callstack 0
   162  00FC93  02                 	db	2
   163  00FC94  40                 	db	64
   164  00FC95  00                 	db	0
   165  00FC96  01                 	db	1
   166  00FC97  00                 	db	0
   167  00FC98  00                 	db	0
   168  00FC99  40                 	db	64
   169  00FC9A  00                 	db	0
   170  00FC9B  00                 	db	0
   171  00FC9C  00                 	db	0
   172  00FC9D                     __end_of_spi1_configuration:
   173                           	callstack 0
   174  00FC9D                     _OLEDC_COLOR_YELLOWGREEN:
   175                           	callstack 0
   176  00FC9D  9E66               	dw	40550
   177  00FC9F                     __end_of_OLEDC_COLOR_YELLOWGREEN:
   178                           	callstack 0
   179  00FC9F  FFE0               	dw	65504
   180  00FCA1                     __end_of_OLEDC_COLOR_YELLOW:
   181                           	callstack 0
   182  00FCA1                     _OLEDC_COLOR_WHITESMOKE:
   183                           	callstack 0
   184  00FCA1  F7BE               	dw	63422
   185  00FCA3                     __end_of_OLEDC_COLOR_WHITESMOKE:
   186                           	callstack 0
   187  00FCA3  FFFF               	dw	65535
   188  00FCA5                     __end_of_OLEDC_COLOR_WHITE:
   189                           	callstack 0
   190  00FCA5                     _OLEDC_COLOR_WHEAT:
   191                           	callstack 0
   192  00FCA5  F6F6               	dw	63222
   193  00FCA7                     __end_of_OLEDC_COLOR_WHEAT:
   194                           	callstack 0
   195  00FCA7                     _OLEDC_COLOR_VIOLET:
   196                           	callstack 0
   197  00FCA7  EC1D               	dw	60445
   198  00FCA9                     __end_of_OLEDC_COLOR_VIOLET:
   199                           	callstack 0
   200  00FCA9                     _OLEDC_COLOR_TURQUOISE:
   201                           	callstack 0
   202  00FCA9  471A               	dw	18202
   203  00FCAB                     __end_of_OLEDC_COLOR_TURQUOISE:
   204                           	callstack 0
   205  00FCAB                     _OLEDC_COLOR_TOMATO:
   206                           	callstack 0
   207  00FCAB  FB08               	dw	64264
   208  00FCAD                     __end_of_OLEDC_COLOR_TOMATO:
   209                           	callstack 0
   210  00FCAD                     _OLEDC_COLOR_THISTLE:
   211                           	callstack 0
   212  00FCAD  DDFB               	dw	56827
   213  00FCAF                     __end_of_OLEDC_COLOR_THISTLE:
   214                           	callstack 0
   215  00FCAF                     _OLEDC_COLOR_TEAL:
   216                           	callstack 0
   217  00FCAF  0410               	dw	1040
   218  00FCB1                     __end_of_OLEDC_COLOR_TEAL:
   219                           	callstack 0
   220  00FCB1                     _OLEDC_COLOR_TAN:
   221                           	callstack 0
   222  00FCB1  D5B1               	dw	54705
   223  00FCB3                     __end_of_OLEDC_COLOR_TAN:
   224                           	callstack 0
   225  00FCB3                     _OLEDC_COLOR_STEELBLUE:
   226                           	callstack 0
   227  00FCB3  4416               	dw	17430
   228  00FCB5                     __end_of_OLEDC_COLOR_STEELBLUE:
   229                           	callstack 0
   230  00FCB5                     _OLEDC_COLOR_SPRINGGREEN:
   231                           	callstack 0
   232  00FCB5  07EF               	dw	2031
   233  00FCB7                     __end_of_OLEDC_COLOR_SPRINGGREEN:
   234                           	callstack 0
   235  00FCB7                     _OLEDC_COLOR_SNOW:
   236                           	callstack 0
   237  00FCB7  FFDF               	dw	65503
   238  00FCB9                     __end_of_OLEDC_COLOR_SNOW:
   239                           	callstack 0
   240  00FCB9                     _OLEDC_COLOR_SLATEGREY:
   241                           	callstack 0
   242  00FCB9  7412               	dw	29714
   243  00FCBB                     __end_of_OLEDC_COLOR_SLATEGREY:
   244                           	callstack 0
   245  00FCBB                     _OLEDC_COLOR_SLATEGRAY:
   246                           	callstack 0
   247  00FCBB  7412               	dw	29714
   248  00FCBD                     __end_of_OLEDC_COLOR_SLATEGRAY:
   249                           	callstack 0
   250  00FCBD                     _OLEDC_COLOR_SLATEBLUE:
   251                           	callstack 0
   252  00FCBD  6AD9               	dw	27353
   253  00FCBF                     __end_of_OLEDC_COLOR_SLATEBLUE:
   254                           	callstack 0
   255  00FCBF                     _OLEDC_COLOR_SKYBLUE:
   256                           	callstack 0
   257  00FCBF  867D               	dw	34429
   258  00FCC1                     __end_of_OLEDC_COLOR_SKYBLUE:
   259                           	callstack 0
   260  00FCC1                     _OLEDC_COLOR_SILVER:
   261                           	callstack 0
   262  00FCC1  C618               	dw	50712
   263  00FCC3                     __end_of_OLEDC_COLOR_SILVER:
   264                           	callstack 0
   265  00FCC3                     _OLEDC_COLOR_SIENNA:
   266                           	callstack 0
   267  00FCC3  A285               	dw	41605
   268  00FCC5                     __end_of_OLEDC_COLOR_SIENNA:
   269                           	callstack 0
   270  00FCC5                     _OLEDC_COLOR_SEASHELL:
   271                           	callstack 0
   272  00FCC5  FFBD               	dw	65469
   273  00FCC7                     __end_of_OLEDC_COLOR_SEASHELL:
   274                           	callstack 0
   275  00FCC7                     _OLEDC_COLOR_SEAGREEN:
   276                           	callstack 0
   277  00FCC7  2C4A               	dw	11338
   278  00FCC9                     __end_of_OLEDC_COLOR_SEAGREEN:
   279                           	callstack 0
   280  00FCC9                     _OLEDC_COLOR_SANDYBROWN:
   281                           	callstack 0
   282  00FCC9  F52C               	dw	62764
   283  00FCCB                     __end_of_OLEDC_COLOR_SANDYBROWN:
   284                           	callstack 0
   285  00FCCB                     _OLEDC_COLOR_SALMON:
   286                           	callstack 0
   287  00FCCB  FC0E               	dw	64526
   288  00FCCD                     __end_of_OLEDC_COLOR_SALMON:
   289                           	callstack 0
   290  00FCCD                     _OLEDC_COLOR_SADDLEBROWN:
   291                           	callstack 0
   292  00FCCD  8A22               	dw	35362
   293  00FCCF                     __end_of_OLEDC_COLOR_SADDLEBROWN:
   294                           	callstack 0
   295  00FCCF                     _OLEDC_COLOR_ROYALBLUE:
   296                           	callstack 0
   297  00FCCF  435C               	dw	17244
   298  00FCD1                     __end_of_OLEDC_COLOR_ROYALBLUE:
   299                           	callstack 0
   300  00FCD1                     _OLEDC_COLOR_ROSYBROWN:
   301                           	callstack 0
   302  00FCD1  BC71               	dw	48241
   303  00FCD3                     __end_of_OLEDC_COLOR_ROSYBROWN:
   304                           	callstack 0
   305  00FCD3  F800               	dw	63488
   306  00FCD5                     __end_of_OLEDC_COLOR_RED:
   307                           	callstack 0
   308  00FCD5                     _OLEDC_COLOR_PURPLE:
   309                           	callstack 0
   310  00FCD5  8010               	dw	32784
   311  00FCD7                     __end_of_OLEDC_COLOR_PURPLE:
   312                           	callstack 0
   313  00FCD7                     _OLEDC_COLOR_POWDERBLUE:
   314                           	callstack 0
   315  00FCD7  B71C               	dw	46876
   316  00FCD9                     __end_of_OLEDC_COLOR_POWDERBLUE:
   317                           	callstack 0
   318  00FCD9                     _OLEDC_COLOR_PLUM:
   319                           	callstack 0
   320  00FCD9  DD1B               	dw	56603
   321  00FCDB                     __end_of_OLEDC_COLOR_PLUM:
   322                           	callstack 0
   323  00FCDB                     _OLEDC_COLOR_PINK:
   324                           	callstack 0
   325  00FCDB  FE19               	dw	65049
   326  00FCDD                     __end_of_OLEDC_COLOR_PINK:
   327                           	callstack 0
   328  00FCDD                     _OLEDC_COLOR_PERU:
   329                           	callstack 0
   330  00FCDD  CC27               	dw	52263
   331  00FCDF                     __end_of_OLEDC_COLOR_PERU:
   332                           	callstack 0
   333  00FCDF                     _OLEDC_COLOR_PEACHPUFF:
   334                           	callstack 0
   335  00FCDF  FED7               	dw	65239
   336  00FCE1                     __end_of_OLEDC_COLOR_PEACHPUFF:
   337                           	callstack 0
   338  00FCE1                     _OLEDC_COLOR_PAPAYAWHIP:
   339                           	callstack 0
   340  00FCE1  FF7A               	dw	65402
   341  00FCE3                     __end_of_OLEDC_COLOR_PAPAYAWHIP:
   342                           	callstack 0
   343  00FCE3                     _OLEDC_COLOR_PALEVIOLETRED:
   344                           	callstack 0
   345  00FCE3  DB92               	dw	56210
   346  00FCE5                     __end_of_OLEDC_COLOR_PALEVIOLETRED:
   347                           	callstack 0
   348  00FCE5                     _OLEDC_COLOR_PALETURQUOISE:
   349                           	callstack 0
   350  00FCE5  AF7D               	dw	44925
   351  00FCE7                     __end_of_OLEDC_COLOR_PALETURQUOISE:
   352                           	callstack 0
   353  00FCE7                     _OLEDC_COLOR_PALEGREEN:
   354                           	callstack 0
   355  00FCE7  9FD3               	dw	40915
   356  00FCE9                     __end_of_OLEDC_COLOR_PALEGREEN:
   357                           	callstack 0
   358  00FCE9                     _OLEDC_COLOR_PALEGOLDENROD:
   359                           	callstack 0
   360  00FCE9  EF55               	dw	61269
   361  00FCEB                     __end_of_OLEDC_COLOR_PALEGOLDENROD:
   362                           	callstack 0
   363  00FCEB                     _OLEDC_COLOR_ORCHID:
   364                           	callstack 0
   365  00FCEB  DB9A               	dw	56218
   366  00FCED                     __end_of_OLEDC_COLOR_ORCHID:
   367                           	callstack 0
   368  00FCED                     _OLEDC_COLOR_ORANGERED:
   369                           	callstack 0
   370  00FCED  FA20               	dw	64032
   371  00FCEF                     __end_of_OLEDC_COLOR_ORANGERED:
   372                           	callstack 0
   373  00FCEF                     _OLEDC_COLOR_ORANGE:
   374                           	callstack 0
   375  00FCEF  FD20               	dw	64800
   376  00FCF1                     __end_of_OLEDC_COLOR_ORANGE:
   377                           	callstack 0
   378  00FCF1                     _OLEDC_COLOR_OLIVEDRAB:
   379                           	callstack 0
   380  00FCF1  6C64               	dw	27748
   381  00FCF3                     __end_of_OLEDC_COLOR_OLIVEDRAB:
   382                           	callstack 0
   383  00FCF3                     _OLEDC_COLOR_OLIVE:
   384                           	callstack 0
   385  00FCF3  8400               	dw	33792
   386  00FCF5                     __end_of_OLEDC_COLOR_OLIVE:
   387                           	callstack 0
   388  00FCF5                     _OLEDC_COLOR_OLDLACE:
   389                           	callstack 0
   390  00FCF5  FFBC               	dw	65468
   391  00FCF7                     __end_of_OLEDC_COLOR_OLDLACE:
   392                           	callstack 0
   393  00FCF7                     _OLEDC_COLOR_NAVY:
   394                           	callstack 0
   395  00FCF7  0010               	dw	16
   396  00FCF9                     __end_of_OLEDC_COLOR_NAVY:
   397                           	callstack 0
   398  00FCF9                     _OLEDC_COLOR_NAVAJOWHITE:
   399                           	callstack 0
   400  00FCF9  FEF5               	dw	65269
   401  00FCFB                     __end_of_OLEDC_COLOR_NAVAJOWHITE:
   402                           	callstack 0
   403  00FCFB                     _OLEDC_COLOR_MOCCASIN:
   404                           	callstack 0
   405  00FCFB  FF36               	dw	65334
   406  00FCFD                     __end_of_OLEDC_COLOR_MOCCASIN:
   407                           	callstack 0
   408  00FCFD                     _OLEDC_COLOR_MISTYROSE:
   409                           	callstack 0
   410  00FCFD  FF3C               	dw	65340
   411  00FCFF                     __end_of_OLEDC_COLOR_MISTYROSE:
   412                           	callstack 0
   413  00FCFF                     _OLEDC_COLOR_MINTCREAM:
   414                           	callstack 0
   415  00FCFF  F7FF               	dw	63487
   416  00FD01                     __end_of_OLEDC_COLOR_MINTCREAM:
   417                           	callstack 0
   418  00FD01                     _OLEDC_COLOR_MIDNIGHTBLUE:
   419                           	callstack 0
   420  00FD01  18CE               	dw	6350
   421  00FD03                     __end_of_OLEDC_COLOR_MIDNIGHTBLUE:
   422                           	callstack 0
   423  00FD03                     _OLEDC_COLOR_MEDIUMVIOLETRED:
   424                           	callstack 0
   425  00FD03  C0B0               	dw	49328
   426  00FD05                     __end_of_OLEDC_COLOR_MEDIUMVIOLETRED:
   427                           	callstack 0
   428  00FD05                     _OLEDC_COLOR_MEDIUMTURQUOISE:
   429                           	callstack 0
   430  00FD05  4E99               	dw	20121
   431  00FD07                     __end_of_OLEDC_COLOR_MEDIUMTURQUOISE:
   432                           	callstack 0
   433  00FD07                     _OLEDC_COLOR_MEDIUMSPRINGGREEN:
   434                           	callstack 0
   435  00FD07  07D3               	dw	2003
   436  00FD09                     __end_of_OLEDC_COLOR_MEDIUMSPRINGGREEN:
   437                           	callstack 0
   438  00FD09                     _OLEDC_COLOR_MEDIUMSLATEBLUE:
   439                           	callstack 0
   440  00FD09  7B5D               	dw	31581
   441  00FD0B                     __end_of_OLEDC_COLOR_MEDIUMSLATEBLUE:
   442                           	callstack 0
   443  00FD0B                     _OLEDC_COLOR_MEDIUMSEAGREEN:
   444                           	callstack 0
   445  00FD0B  3D8E               	dw	15758
   446  00FD0D                     __end_of_OLEDC_COLOR_MEDIUMSEAGREEN:
   447                           	callstack 0
   448  00FD0D                     _OLEDC_COLOR_MEDIUMPURPLE:
   449                           	callstack 0
   450  00FD0D  939B               	dw	37787
   451  00FD0F                     __end_of_OLEDC_COLOR_MEDIUMPURPLE:
   452                           	callstack 0
   453  00FD0F                     _OLEDC_COLOR_MEDIUMORCHID:
   454                           	callstack 0
   455  00FD0F  BABA               	dw	47802
   456  00FD11                     __end_of_OLEDC_COLOR_MEDIUMORCHID:
   457                           	callstack 0
   458  00FD11                     _OLEDC_COLOR_MEDIUMBLUE:
   459                           	callstack 0
   460  00FD11  0019               	dw	25
   461  00FD13                     __end_of_OLEDC_COLOR_MEDIUMBLUE:
   462                           	callstack 0
   463  00FD13                     _OLEDC_COLOR_MEDIUMAQUAMARINE:
   464                           	callstack 0
   465  00FD13  6675               	dw	26229
   466  00FD15                     __end_of_OLEDC_COLOR_MEDIUMAQUAMARINE:
   467                           	callstack 0
   468  00FD15                     _OLEDC_COLOR_MAROON:
   469                           	callstack 0
   470  00FD15  8000               	dw	32768
   471  00FD17                     __end_of_OLEDC_COLOR_MAROON:
   472                           	callstack 0
   473  00FD17                     _OLEDC_COLOR_MAGENTA:
   474                           	callstack 0
   475  00FD17  F81F               	dw	63519
   476  00FD19                     __end_of_OLEDC_COLOR_MAGENTA:
   477                           	callstack 0
   478  00FD19                     _OLEDC_COLOR_LINEN:
   479                           	callstack 0
   480  00FD19  FF9C               	dw	65436
   481  00FD1B                     __end_of_OLEDC_COLOR_LINEN:
   482                           	callstack 0
   483  00FD1B                     _OLEDC_COLOR_LIMEGREEN:
   484                           	callstack 0
   485  00FD1B  3666               	dw	13926
   486  00FD1D                     __end_of_OLEDC_COLOR_LIMEGREEN:
   487                           	callstack 0
   488  00FD1D                     _OLEDC_COLOR_LIME:
   489                           	callstack 0
   490  00FD1D  07E0               	dw	2016
   491  00FD1F                     __end_of_OLEDC_COLOR_LIME:
   492                           	callstack 0
   493  00FD1F                     _OLEDC_COLOR_LIGHTYELLOW:
   494                           	callstack 0
   495  00FD1F  FFFC               	dw	65532
   496  00FD21                     __end_of_OLEDC_COLOR_LIGHTYELLOW:
   497                           	callstack 0
   498  00FD21                     _OLEDC_COLOR_LIGHTSTEELBLUE:
   499                           	callstack 0
   500  00FD21  B63B               	dw	46651
   501  00FD23                     __end_of_OLEDC_COLOR_LIGHTSTEELBLUE:
   502                           	callstack 0
   503  00FD23                     _OLEDC_COLOR_LIGHTSLATEGREY:
   504                           	callstack 0
   505  00FD23  7453               	dw	29779
   506  00FD25                     __end_of_OLEDC_COLOR_LIGHTSLATEGREY:
   507                           	callstack 0
   508  00FD25                     _OLEDC_COLOR_LIGHTSLATEGRAY:
   509                           	callstack 0
   510  00FD25  7453               	dw	29779
   511  00FD27                     __end_of_OLEDC_COLOR_LIGHTSLATEGRAY:
   512                           	callstack 0
   513  00FD27                     _OLEDC_COLOR_LIGHTSKYBLUE:
   514                           	callstack 0
   515  00FD27  867F               	dw	34431
   516  00FD29                     __end_of_OLEDC_COLOR_LIGHTSKYBLUE:
   517                           	callstack 0
   518  00FD29                     _OLEDC_COLOR_LIGHTSEAGREEN:
   519                           	callstack 0
   520  00FD29  2595               	dw	9621
   521  00FD2B                     __end_of_OLEDC_COLOR_LIGHTSEAGREEN:
   522                           	callstack 0
   523  00FD2B                     _OLEDC_COLOR_LIGHTSALMON:
   524                           	callstack 0
   525  00FD2B  FD0F               	dw	64783
   526  00FD2D                     __end_of_OLEDC_COLOR_LIGHTSALMON:
   527                           	callstack 0
   528  00FD2D                     _OLEDC_COLOR_LIGHTPINK:
   529                           	callstack 0
   530  00FD2D  FDB8               	dw	64952
   531  00FD2F                     __end_of_OLEDC_COLOR_LIGHTPINK:
   532                           	callstack 0
   533  00FD2F                     _OLEDC_COLOR_LIGHTGREY:
   534                           	callstack 0
   535  00FD2F  D69A               	dw	54938
   536  00FD31                     __end_of_OLEDC_COLOR_LIGHTGREY:
   537                           	callstack 0
   538  00FD31                     _OLEDC_COLOR_LIGHTGREEN:
   539                           	callstack 0
   540  00FD31  9772               	dw	38770
   541  00FD33                     __end_of_OLEDC_COLOR_LIGHTGREEN:
   542                           	callstack 0
   543  00FD33                     _OLEDC_COLOR_LIGHTGRAY:
   544                           	callstack 0
   545  00FD33  D69A               	dw	54938
   546  00FD35                     __end_of_OLEDC_COLOR_LIGHTGRAY:
   547                           	callstack 0
   548  00FD35                     _OLEDC_COLOR_LIGHTGOLDENRODYELLOW:
   549                           	callstack 0
   550  00FD35  FFDA               	dw	65498
   551  00FD37                     __end_of_OLEDC_COLOR_LIGHTGOLDENRODYELLOW:
   552                           	callstack 0
   553  00FD37                     _OLEDC_COLOR_LIGHTCYAN:
   554                           	callstack 0
   555  00FD37  E7FF               	dw	59391
   556  00FD39                     __end_of_OLEDC_COLOR_LIGHTCYAN:
   557                           	callstack 0
   558  00FD39                     _OLEDC_COLOR_LIGHTCORAL:
   559                           	callstack 0
   560  00FD39  F410               	dw	62480
   561  00FD3B                     __end_of_OLEDC_COLOR_LIGHTCORAL:
   562                           	callstack 0
   563  00FD3B                     _OLEDC_COLOR_LIGHTBLUE:
   564                           	callstack 0
   565  00FD3B  AEDC               	dw	44764
   566  00FD3D                     __end_of_OLEDC_COLOR_LIGHTBLUE:
   567                           	callstack 0
   568  00FD3D                     _OLEDC_COLOR_LEMONCHIFFON:
   569                           	callstack 0
   570  00FD3D  FFD9               	dw	65497
   571  00FD3F                     __end_of_OLEDC_COLOR_LEMONCHIFFON:
   572                           	callstack 0
   573  00FD3F                     _OLEDC_COLOR_LAWNGREEN:
   574                           	callstack 0
   575  00FD3F  7FE0               	dw	32736
   576  00FD41                     __end_of_OLEDC_COLOR_LAWNGREEN:
   577                           	callstack 0
   578  00FD41                     _OLEDC_COLOR_LAVENDERBLUSH:
   579                           	callstack 0
   580  00FD41  FF9E               	dw	65438
   581  00FD43                     __end_of_OLEDC_COLOR_LAVENDERBLUSH:
   582                           	callstack 0
   583  00FD43                     _OLEDC_COLOR_LAVENDER:
   584                           	callstack 0
   585  00FD43  E73F               	dw	59199
   586  00FD45                     __end_of_OLEDC_COLOR_LAVENDER:
   587                           	callstack 0
   588  00FD45                     _OLEDC_COLOR_KHAKI:
   589                           	callstack 0
   590  00FD45  F731               	dw	63281
   591  00FD47                     __end_of_OLEDC_COLOR_KHAKI:
   592                           	callstack 0
   593  00FD47                     _OLEDC_COLOR_IVORY:
   594                           	callstack 0
   595  00FD47  FFFE               	dw	65534
   596  00FD49                     __end_of_OLEDC_COLOR_IVORY:
   597                           	callstack 0
   598  00FD49                     _OLEDC_COLOR_INDIGO:
   599                           	callstack 0
   600  00FD49  4810               	dw	18448
   601  00FD4B                     __end_of_OLEDC_COLOR_INDIGO:
   602                           	callstack 0
   603  00FD4B                     _OLEDC_COLOR_INDIANRED:
   604                           	callstack 0
   605  00FD4B  CAEB               	dw	51947
   606  00FD4D                     __end_of_OLEDC_COLOR_INDIANRED:
   607                           	callstack 0
   608  00FD4D                     _OLEDC_COLOR_HOTPINK:
   609                           	callstack 0
   610  00FD4D  FB56               	dw	64342
   611  00FD4F                     __end_of_OLEDC_COLOR_HOTPINK:
   612                           	callstack 0
   613  00FD4F                     _OLEDC_COLOR_HONEYDEW:
   614                           	callstack 0
   615  00FD4F  F7FE               	dw	63486
   616  00FD51                     __end_of_OLEDC_COLOR_HONEYDEW:
   617                           	callstack 0
   618  00FD51                     _OLEDC_COLOR_GREY:
   619                           	callstack 0
   620  00FD51  8410               	dw	33808
   621  00FD53                     __end_of_OLEDC_COLOR_GREY:
   622                           	callstack 0
   623  00FD53                     _OLEDC_COLOR_GREENYELLOW:
   624                           	callstack 0
   625  00FD53  AFE5               	dw	45029
   626  00FD55                     __end_of_OLEDC_COLOR_GREENYELLOW:
   627                           	callstack 0
   628  00FD55  0400               	dw	1024
   629  00FD57                     __end_of_OLEDC_COLOR_GREEN:
   630                           	callstack 0
   631  00FD57                     _OLEDC_COLOR_GRAY:
   632                           	callstack 0
   633  00FD57  8410               	dw	33808
   634  00FD59                     __end_of_OLEDC_COLOR_GRAY:
   635                           	callstack 0
   636  00FD59                     _OLEDC_COLOR_GOLDENROD:
   637                           	callstack 0
   638  00FD59  DD24               	dw	56612
   639  00FD5B                     __end_of_OLEDC_COLOR_GOLDENROD:
   640                           	callstack 0
   641  00FD5B                     _OLEDC_COLOR_GOLD:
   642                           	callstack 0
   643  00FD5B  FEA0               	dw	65184
   644  00FD5D                     __end_of_OLEDC_COLOR_GOLD:
   645                           	callstack 0
   646  00FD5D                     _OLEDC_COLOR_GHOSTWHITE:
   647                           	callstack 0
   648  00FD5D  FFDF               	dw	65503
   649  00FD5F                     __end_of_OLEDC_COLOR_GHOSTWHITE:
   650                           	callstack 0
   651  00FD5F                     _OLEDC_COLOR_GAINSBORO:
   652                           	callstack 0
   653  00FD5F  DEFB               	dw	57083
   654  00FD61                     __end_of_OLEDC_COLOR_GAINSBORO:
   655                           	callstack 0
   656  00FD61                     _OLEDC_COLOR_FUCHSIA:
   657                           	callstack 0
   658  00FD61  F81F               	dw	63519
   659  00FD63                     __end_of_OLEDC_COLOR_FUCHSIA:
   660                           	callstack 0
   661  00FD63                     _OLEDC_COLOR_FORESTGREEN:
   662                           	callstack 0
   663  00FD63  2444               	dw	9284
   664  00FD65                     __end_of_OLEDC_COLOR_FORESTGREEN:
   665                           	callstack 0
   666  00FD65                     _OLEDC_COLOR_FLORALWHITE:
   667                           	callstack 0
   668  00FD65  FFDE               	dw	65502
   669  00FD67                     __end_of_OLEDC_COLOR_FLORALWHITE:
   670                           	callstack 0
   671  00FD67                     _OLEDC_COLOR_FIREBRICK:
   672                           	callstack 0
   673  00FD67  B104               	dw	45316
   674  00FD69                     __end_of_OLEDC_COLOR_FIREBRICK:
   675                           	callstack 0
   676  00FD69                     _OLEDC_COLOR_DODGERBLUE:
   677                           	callstack 0
   678  00FD69  1C9F               	dw	7327
   679  00FD6B                     __end_of_OLEDC_COLOR_DODGERBLUE:
   680                           	callstack 0
   681  00FD6B                     _OLEDC_COLOR_DIMGREY:
   682                           	callstack 0
   683  00FD6B  6B4D               	dw	27469
   684  00FD6D                     __end_of_OLEDC_COLOR_DIMGREY:
   685                           	callstack 0
   686  00FD6D                     _OLEDC_COLOR_DIMGRAY:
   687                           	callstack 0
   688  00FD6D  6B4D               	dw	27469
   689  00FD6F                     __end_of_OLEDC_COLOR_DIMGRAY:
   690                           	callstack 0
   691  00FD6F                     _OLEDC_COLOR_DEEPSKYBLUE:
   692                           	callstack 0
   693  00FD6F  05FF               	dw	1535
   694  00FD71                     __end_of_OLEDC_COLOR_DEEPSKYBLUE:
   695                           	callstack 0
   696  00FD71                     _OLEDC_COLOR_DEEPPINK:
   697                           	callstack 0
   698  00FD71  F8B2               	dw	63666
   699  00FD73                     __end_of_OLEDC_COLOR_DEEPPINK:
   700                           	callstack 0
   701  00FD73                     _OLEDC_COLOR_DARKVIOLET:
   702                           	callstack 0
   703  00FD73  901A               	dw	36890
   704  00FD75                     __end_of_OLEDC_COLOR_DARKVIOLET:
   705                           	callstack 0
   706  00FD75                     _OLEDC_COLOR_DARKTURQUOISE:
   707                           	callstack 0
   708  00FD75  067A               	dw	1658
   709  00FD77                     __end_of_OLEDC_COLOR_DARKTURQUOISE:
   710                           	callstack 0
   711  00FD77                     _OLEDC_COLOR_DARKSLATEGREY:
   712                           	callstack 0
   713  00FD77  2A69               	dw	10857
   714  00FD79                     __end_of_OLEDC_COLOR_DARKSLATEGREY:
   715                           	callstack 0
   716  00FD79                     _OLEDC_COLOR_DARKSLATEGRAY:
   717                           	callstack 0
   718  00FD79  2A69               	dw	10857
   719  00FD7B                     __end_of_OLEDC_COLOR_DARKSLATEGRAY:
   720                           	callstack 0
   721  00FD7B                     _OLEDC_COLOR_DARKSLATEBLUE:
   722                           	callstack 0
   723  00FD7B  49F1               	dw	18929
   724  00FD7D                     __end_of_OLEDC_COLOR_DARKSLATEBLUE:
   725                           	callstack 0
   726  00FD7D                     _OLEDC_COLOR_DARKSEAGREEN:
   727                           	callstack 0
   728  00FD7D  8DF1               	dw	36337
   729  00FD7F                     __end_of_OLEDC_COLOR_DARKSEAGREEN:
   730                           	callstack 0
   731  00FD7F                     _OLEDC_COLOR_DARKSALMON:
   732                           	callstack 0
   733  00FD7F  ECAF               	dw	60591
   734  00FD81                     __end_of_OLEDC_COLOR_DARKSALMON:
   735                           	callstack 0
   736  00FD81                     _OLEDC_COLOR_DARKRED:
   737                           	callstack 0
   738  00FD81  8800               	dw	34816
   739  00FD83                     __end_of_OLEDC_COLOR_DARKRED:
   740                           	callstack 0
   741  00FD83                     _OLEDC_COLOR_DARKORCHID:
   742                           	callstack 0
   743  00FD83  9999               	dw	39321
   744  00FD85                     __end_of_OLEDC_COLOR_DARKORCHID:
   745                           	callstack 0
   746  00FD85                     _OLEDC_COLOR_DARKORANGE:
   747                           	callstack 0
   748  00FD85  FC60               	dw	64608
   749  00FD87                     __end_of_OLEDC_COLOR_DARKORANGE:
   750                           	callstack 0
   751  00FD87                     _OLEDC_COLOR_DARKOLIVEGREEN:
   752                           	callstack 0
   753  00FD87  5345               	dw	21317
   754  00FD89                     __end_of_OLEDC_COLOR_DARKOLIVEGREEN:
   755                           	callstack 0
   756  00FD89                     _OLEDC_COLOR_DARKMAGENTA:
   757                           	callstack 0
   758  00FD89  8811               	dw	34833
   759  00FD8B                     __end_of_OLEDC_COLOR_DARKMAGENTA:
   760                           	callstack 0
   761  00FD8B                     _OLEDC_COLOR_DARKKHAKI:
   762                           	callstack 0
   763  00FD8B  BDAD               	dw	48557
   764  00FD8D                     __end_of_OLEDC_COLOR_DARKKHAKI:
   765                           	callstack 0
   766  00FD8D                     _OLEDC_COLOR_DARKGREY:
   767                           	callstack 0
   768  00FD8D  AD55               	dw	44373
   769  00FD8F                     __end_of_OLEDC_COLOR_DARKGREY:
   770                           	callstack 0
   771  00FD8F                     _OLEDC_COLOR_DARKGREEN:
   772                           	callstack 0
   773  00FD8F  0320               	dw	800
   774  00FD91                     __end_of_OLEDC_COLOR_DARKGREEN:
   775                           	callstack 0
   776  00FD91                     _OLEDC_COLOR_DARKGRAY:
   777                           	callstack 0
   778  00FD91  AD55               	dw	44373
   779  00FD93                     __end_of_OLEDC_COLOR_DARKGRAY:
   780                           	callstack 0
   781  00FD93                     _OLEDC_COLOR_DARKGOLDENROD:
   782                           	callstack 0
   783  00FD93  BC21               	dw	48161
   784  00FD95                     __end_of_OLEDC_COLOR_DARKGOLDENROD:
   785                           	callstack 0
   786  00FD95                     _OLEDC_COLOR_DARKCYAN:
   787                           	callstack 0
   788  00FD95  0451               	dw	1105
   789  00FD97                     __end_of_OLEDC_COLOR_DARKCYAN:
   790                           	callstack 0
   791  00FD97                     _OLEDC_COLOR_DARKBLUE:
   792                           	callstack 0
   793  00FD97  0011               	dw	17
   794  00FD99                     __end_of_OLEDC_COLOR_DARKBLUE:
   795                           	callstack 0
   796  00FD99                     _OLEDC_COLOR_CYAN:
   797                           	callstack 0
   798  00FD99  07FF               	dw	2047
   799  00FD9B                     __end_of_OLEDC_COLOR_CYAN:
   800                           	callstack 0
   801  00FD9B                     _OLEDC_COLOR_CRIMSON:
   802                           	callstack 0
   803  00FD9B  D8A7               	dw	55463
   804  00FD9D                     __end_of_OLEDC_COLOR_CRIMSON:
   805                           	callstack 0
   806  00FD9D                     _OLEDC_COLOR_CORNSILK:
   807                           	callstack 0
   808  00FD9D  FFDB               	dw	65499
   809  00FD9F                     __end_of_OLEDC_COLOR_CORNSILK:
   810                           	callstack 0
   811  00FD9F                     _OLEDC_COLOR_CORNFLOWERBLUE:
   812                           	callstack 0
   813  00FD9F  64BD               	dw	25789
   814  00FDA1                     __end_of_OLEDC_COLOR_CORNFLOWERBLUE:
   815                           	callstack 0
   816  00FDA1                     _OLEDC_COLOR_CORAL:
   817                           	callstack 0
   818  00FDA1  FBEA               	dw	64490
   819  00FDA3                     __end_of_OLEDC_COLOR_CORAL:
   820                           	callstack 0
   821  00FDA3                     _OLEDC_COLOR_CHOCOLATE:
   822                           	callstack 0
   823  00FDA3  D343               	dw	54083
   824  00FDA5                     __end_of_OLEDC_COLOR_CHOCOLATE:
   825                           	callstack 0
   826  00FDA5                     _OLEDC_COLOR_CHARTREUSE:
   827                           	callstack 0
   828  00FDA5  7FE0               	dw	32736
   829  00FDA7                     __end_of_OLEDC_COLOR_CHARTREUSE:
   830                           	callstack 0
   831  00FDA7                     _OLEDC_COLOR_CADETBLUE:
   832                           	callstack 0
   833  00FDA7  5CF4               	dw	23796
   834  00FDA9                     __end_of_OLEDC_COLOR_CADETBLUE:
   835                           	callstack 0
   836  00FDA9                     _OLEDC_COLOR_BURLYWOOD:
   837                           	callstack 0
   838  00FDA9  DDD0               	dw	56784
   839  00FDAB                     __end_of_OLEDC_COLOR_BURLYWOOD:
   840                           	callstack 0
   841  00FDAB                     _OLEDC_COLOR_BROWN:
   842                           	callstack 0
   843  00FDAB  A145               	dw	41285
   844  00FDAD                     __end_of_OLEDC_COLOR_BROWN:
   845                           	callstack 0
   846  00FDAD                     _OLEDC_COLOR_BLUEVIOLET:
   847                           	callstack 0
   848  00FDAD  895C               	dw	35164
   849  00FDAF                     __end_of_OLEDC_COLOR_BLUEVIOLET:
   850                           	callstack 0
   851  00FDAF  001F               	dw	31
   852  00FDB1                     __end_of_OLEDC_COLOR_BLUE:
   853                           	callstack 0
   854  00FDB1                     _OLEDC_COLOR_BLANCHEDALMOND:
   855                           	callstack 0
   856  00FDB1  FF59               	dw	65369
   857  00FDB3                     __end_of_OLEDC_COLOR_BLANCHEDALMOND:
   858                           	callstack 0
   859  00FDB3                     _OLEDC_COLOR_BLACK:
   860                           	callstack 0
   861  00FDB3  0000               	dw	0
   862  00FDB5                     __end_of_OLEDC_COLOR_BLACK:
   863                           	callstack 0
   864  00FDB5                     _OLEDC_COLOR_BISQUE:
   865                           	callstack 0
   866  00FDB5  FF38               	dw	65336
   867  00FDB7                     __end_of_OLEDC_COLOR_BISQUE:
   868                           	callstack 0
   869  00FDB7                     _OLEDC_COLOR_BEIGE:
   870                           	callstack 0
   871  00FDB7  F7BB               	dw	63419
   872  00FDB9                     __end_of_OLEDC_COLOR_BEIGE:
   873                           	callstack 0
   874  00FDB9                     _OLEDC_COLOR_AZURE:
   875                           	callstack 0
   876  00FDB9  F7FF               	dw	63487
   877  00FDBB                     __end_of_OLEDC_COLOR_AZURE:
   878                           	callstack 0
   879  00FDBB                     _OLEDC_COLOR_AQUAMARINE:
   880                           	callstack 0
   881  00FDBB  7FFA               	dw	32762
   882  00FDBD                     __end_of_OLEDC_COLOR_AQUAMARINE:
   883                           	callstack 0
   884  00FDBD                     _OLEDC_COLOR_AQUA:
   885                           	callstack 0
   886  00FDBD  07FF               	dw	2047
   887  00FDBF                     __end_of_OLEDC_COLOR_AQUA:
   888                           	callstack 0
   889  00FDBF                     _OLEDC_COLOR_ANTIQUEWHITE:
   890                           	callstack 0
   891  00FDBF  FF5A               	dw	65370
   892  00FDC1                     __end_of_OLEDC_COLOR_ANTIQUEWHITE:
   893                           	callstack 0
   894  00FDC1                     _OLEDC_COLOR_ALICEBLUE:
   895                           	callstack 0
   896  00FDC1  F7DF               	dw	63455
   897  00FDC3                     __end_of_OLEDC_COLOR_ALICEBLUE:
   898                           	callstack 0
   899  00FDC3  05                 	db	5
   900  00FDC4                     __end_of_OLED_FONT_WIDTH:
   901                           	callstack 0
   902  00FDC4  5F                 	db	95
   903  00FDC5                     __end_of_OLED_DIM_HEIGHT:
   904                           	callstack 0
   905  00FDC5                     _OLED_DIM_WIDTH:
   906                           	callstack 0
   907  00FDC5  5F                 	db	95
   908  00FDC6                     __end_of_OLED_DIM_WIDTH:
   909                           	callstack 0
   910  00FDC6                     _font:
   911                           	callstack 0
   912  00FDC6  00                 	db	0
   913  00FDC7  00                 	db	0
   914  00FDC8  00                 	db	0
   915  00FDC9  00                 	db	0
   916  00FDCA  00                 	db	0
   917  00FDCB  00                 	db	0
   918  00FDCC  00                 	db	0
   919  00FDCD  FA                 	db	250
   920  00FDCE  00                 	db	0
   921  00FDCF  00                 	db	0
   922  00FDD0  00                 	db	0
   923  00FDD1  E0                 	db	224
   924  00FDD2  00                 	db	0
   925  00FDD3  E0                 	db	224
   926  00FDD4  00                 	db	0
   927  00FDD5  28                 	db	40
   928  00FDD6  FE                 	db	254
   929  00FDD7  28                 	db	40
   930  00FDD8  FE                 	db	254
   931  00FDD9  28                 	db	40
   932  00FDDA  24                 	db	36
   933  00FDDB  54                 	db	84
   934  00FDDC  FE                 	db	254
   935  00FDDD  54                 	db	84
   936  00FDDE  48                 	db	72
   937  00FDDF  C4                 	db	196
   938  00FDE0  C8                 	db	200
   939  00FDE1  10                 	db	16
   940  00FDE2  26                 	db	38
   941  00FDE3  46                 	db	70
   942  00FDE4  6C                 	db	108
   943  00FDE5  92                 	db	146
   944  00FDE6  6A                 	db	106
   945  00FDE7  04                 	db	4
   946  00FDE8  0A                 	db	10
   947  00FDE9  00                 	db	0
   948  00FDEA  10                 	db	16
   949  00FDEB  E0                 	db	224
   950  00FDEC  C0                 	db	192
   951  00FDED  00                 	db	0
   952  00FDEE  00                 	db	0
   953  00FDEF  38                 	db	56
   954  00FDF0  44                 	db	68
   955  00FDF1  82                 	db	130
   956  00FDF2  00                 	db	0
   957  00FDF3  00                 	db	0
   958  00FDF4  82                 	db	130
   959  00FDF5  44                 	db	68
   960  00FDF6  38                 	db	56
   961  00FDF7  00                 	db	0
   962  00FDF8  54                 	db	84
   963  00FDF9  38                 	db	56
   964  00FDFA  FE                 	db	254
   965  00FDFB  38                 	db	56
   966  00FDFC  54                 	db	84
   967  00FDFD  10                 	db	16
   968  00FDFE  10                 	db	16
   969  00FDFF  7C                 	db	124
   970  00FE00  10                 	db	16
   971  00FE01  10                 	db	16
   972  00FE02  00                 	db	0
   973  00FE03  00                 	db	0
   974  00FE04  0E                 	db	14
   975  00FE05  0C                 	db	12
   976  00FE06  00                 	db	0
   977  00FE07  10                 	db	16
   978  00FE08  10                 	db	16
   979  00FE09  10                 	db	16
   980  00FE0A  10                 	db	16
   981  00FE0B  10                 	db	16
   982  00FE0C  00                 	db	0
   983  00FE0D  00                 	db	0
   984  00FE0E  06                 	db	6
   985  00FE0F  06                 	db	6
   986  00FE10  00                 	db	0
   987  00FE11  04                 	db	4
   988  00FE12  08                 	db	8
   989  00FE13  10                 	db	16
   990  00FE14  20                 	db	32
   991  00FE15  40                 	db	64
   992  00FE16  7C                 	db	124
   993  00FE17  8A                 	db	138
   994  00FE18  92                 	db	146
   995  00FE19  A2                 	db	162
   996  00FE1A  7C                 	db	124
   997  00FE1B  00                 	db	0
   998  00FE1C  42                 	db	66
   999  00FE1D  FE                 	db	254
  1000  00FE1E  02                 	db	2
  1001  00FE1F  00                 	db	0
  1002  00FE20  4E                 	db	78
  1003  00FE21  92                 	db	146
  1004  00FE22  92                 	db	146
  1005  00FE23  92                 	db	146
  1006  00FE24  62                 	db	98
  1007  00FE25  84                 	db	132
  1008  00FE26  82                 	db	130
  1009  00FE27  92                 	db	146
  1010  00FE28  B2                 	db	178
  1011  00FE29  CC                 	db	204
  1012  00FE2A  18                 	db	24
  1013  00FE2B  28                 	db	40
  1014  00FE2C  48                 	db	72
  1015  00FE2D  FE                 	db	254
  1016  00FE2E  08                 	db	8
  1017  00FE2F  E4                 	db	228
  1018  00FE30  A2                 	db	162
  1019  00FE31  A2                 	db	162
  1020  00FE32  A2                 	db	162
  1021  00FE33  9C                 	db	156
  1022  00FE34  3C                 	db	60
  1023  00FE35  52                 	db	82
  1024  00FE36  92                 	db	146
  1025  00FE37  92                 	db	146
  1026  00FE38  8C                 	db	140
  1027  00FE39  82                 	db	130
  1028  00FE3A  84                 	db	132
  1029  00FE3B  88                 	db	136
  1030  00FE3C  90                 	db	144
  1031  00FE3D  E0                 	db	224
  1032  00FE3E  6C                 	db	108
  1033  00FE3F  92                 	db	146
  1034  00FE40  92                 	db	146
  1035  00FE41  92                 	db	146
  1036  00FE42  6C                 	db	108
  1037  00FE43  62                 	db	98
  1038  00FE44  92                 	db	146
  1039  00FE45  92                 	db	146
  1040  00FE46  94                 	db	148
  1041  00FE47  78                 	db	120
  1042  00FE48  00                 	db	0
  1043  00FE49  00                 	db	0
  1044  00FE4A  28                 	db	40
  1045  00FE4B  00                 	db	0
  1046  00FE4C  00                 	db	0
  1047  00FE4D  00                 	db	0
  1048  00FE4E  02                 	db	2
  1049  00FE4F  2C                 	db	44
  1050  00FE50  00                 	db	0
  1051  00FE51  00                 	db	0
  1052  00FE52  00                 	db	0
  1053  00FE53  10                 	db	16
  1054  00FE54  28                 	db	40
  1055  00FE55  44                 	db	68
  1056  00FE56  82                 	db	130
  1057  00FE57  28                 	db	40
  1058  00FE58  28                 	db	40
  1059  00FE59  28                 	db	40
  1060  00FE5A  28                 	db	40
  1061  00FE5B  28                 	db	40
  1062  00FE5C  00                 	db	0
  1063  00FE5D  82                 	db	130
  1064  00FE5E  44                 	db	68
  1065  00FE5F  28                 	db	40
  1066  00FE60  10                 	db	16
  1067  00FE61  40                 	db	64
  1068  00FE62  80                 	db	128
  1069  00FE63  9A                 	db	154
  1070  00FE64  90                 	db	144
  1071  00FE65  60                 	db	96
  1072  00FE66  7C                 	db	124
  1073  00FE67  82                 	db	130
  1074  00FE68  BA                 	db	186
  1075  00FE69  9A                 	db	154
  1076  00FE6A  72                 	db	114
  1077  00FE6B  3E                 	db	62
  1078  00FE6C  48                 	db	72
  1079  00FE6D  88                 	db	136
  1080  00FE6E  48                 	db	72
  1081  00FE6F  3E                 	db	62
  1082  00FE70  FE                 	db	254
  1083  00FE71  92                 	db	146
  1084  00FE72  92                 	db	146
  1085  00FE73  92                 	db	146
  1086  00FE74  6C                 	db	108
  1087  00FE75  7C                 	db	124
  1088  00FE76  82                 	db	130
  1089  00FE77  82                 	db	130
  1090  00FE78  82                 	db	130
  1091  00FE79  44                 	db	68
  1092  00FE7A  FE                 	db	254
  1093  00FE7B  82                 	db	130
  1094  00FE7C  82                 	db	130
  1095  00FE7D  82                 	db	130
  1096  00FE7E  7C                 	db	124
  1097  00FE7F  FE                 	db	254
  1098  00FE80  92                 	db	146
  1099  00FE81  92                 	db	146
  1100  00FE82  92                 	db	146
  1101  00FE83  82                 	db	130
  1102  00FE84  FE                 	db	254
  1103  00FE85  90                 	db	144
  1104  00FE86  90                 	db	144
  1105  00FE87  90                 	db	144
  1106  00FE88  80                 	db	128
  1107  00FE89  7C                 	db	124
  1108  00FE8A  82                 	db	130
  1109  00FE8B  82                 	db	130
  1110  00FE8C  8A                 	db	138
  1111  00FE8D  CE                 	db	206
  1112  00FE8E  FE                 	db	254
  1113  00FE8F  10                 	db	16
  1114  00FE90  10                 	db	16
  1115  00FE91  10                 	db	16
  1116  00FE92  FE                 	db	254
  1117  00FE93  00                 	db	0
  1118  00FE94  82                 	db	130
  1119  00FE95  FE                 	db	254
  1120  00FE96  82                 	db	130
  1121  00FE97  00                 	db	0
  1122  00FE98  04                 	db	4
  1123  00FE99  02                 	db	2
  1124  00FE9A  82                 	db	130
  1125  00FE9B  FC                 	db	252
  1126  00FE9C  80                 	db	128
  1127  00FE9D  FE                 	db	254
  1128  00FE9E  10                 	db	16
  1129  00FE9F  28                 	db	40
  1130  00FEA0  44                 	db	68
  1131  00FEA1  82                 	db	130
  1132  00FEA2  FE                 	db	254
  1133  00FEA3  02                 	db	2
  1134  00FEA4  02                 	db	2
  1135  00FEA5  02                 	db	2
  1136  00FEA6  02                 	db	2
  1137  00FEA7  FE                 	db	254
  1138  00FEA8  40                 	db	64
  1139  00FEA9  38                 	db	56
  1140  00FEAA  40                 	db	64
  1141  00FEAB  FE                 	db	254
  1142  00FEAC  FE                 	db	254
  1143  00FEAD  20                 	db	32
  1144  00FEAE  10                 	db	16
  1145  00FEAF  08                 	db	8
  1146  00FEB0  FE                 	db	254
  1147  00FEB1  7C                 	db	124
  1148  00FEB2  82                 	db	130
  1149  00FEB3  82                 	db	130
  1150  00FEB4  82                 	db	130
  1151  00FEB5  7C                 	db	124
  1152  00FEB6  FE                 	db	254
  1153  00FEB7  90                 	db	144
  1154  00FEB8  90                 	db	144
  1155  00FEB9  90                 	db	144
  1156  00FEBA  60                 	db	96
  1157  00FEBB  7C                 	db	124
  1158  00FEBC  82                 	db	130
  1159  00FEBD  8A                 	db	138
  1160  00FEBE  84                 	db	132
  1161  00FEBF  7A                 	db	122
  1162  00FEC0  FE                 	db	254
  1163  00FEC1  90                 	db	144
  1164  00FEC2  98                 	db	152
  1165  00FEC3  94                 	db	148
  1166  00FEC4  62                 	db	98
  1167  00FEC5  64                 	db	100
  1168  00FEC6  92                 	db	146
  1169  00FEC7  92                 	db	146
  1170  00FEC8  92                 	db	146
  1171  00FEC9  4C                 	db	76
  1172  00FECA  C0                 	db	192
  1173  00FECB  80                 	db	128
  1174  00FECC  FE                 	db	254
  1175  00FECD  80                 	db	128
  1176  00FECE  C0                 	db	192
  1177  00FECF  FC                 	db	252
  1178  00FED0  02                 	db	2
  1179  00FED1  02                 	db	2
  1180  00FED2  02                 	db	2
  1181  00FED3  FC                 	db	252
  1182  00FED4  F8                 	db	248
  1183  00FED5  04                 	db	4
  1184  00FED6  02                 	db	2
  1185  00FED7  04                 	db	4
  1186  00FED8  F8                 	db	248
  1187  00FED9  FC                 	db	252
  1188  00FEDA  02                 	db	2
  1189  00FEDB  1C                 	db	28
  1190  00FEDC  02                 	db	2
  1191  00FEDD  FC                 	db	252
  1192  00FEDE  C6                 	db	198
  1193  00FEDF  28                 	db	40
  1194  00FEE0  10                 	db	16
  1195  00FEE1  28                 	db	40
  1196  00FEE2  C6                 	db	198
  1197  00FEE3  C0                 	db	192
  1198  00FEE4  20                 	db	32
  1199  00FEE5  1E                 	db	30
  1200  00FEE6  20                 	db	32
  1201  00FEE7  C0                 	db	192
  1202  00FEE8  86                 	db	134
  1203  00FEE9  9A                 	db	154
  1204  00FEEA  92                 	db	146
  1205  00FEEB  B2                 	db	178
  1206  00FEEC  C2                 	db	194
  1207  00FEED  00                 	db	0
  1208  00FEEE  FE                 	db	254
  1209  00FEEF  82                 	db	130
  1210  00FEF0  82                 	db	130
  1211  00FEF1  82                 	db	130
  1212  00FEF2  40                 	db	64
  1213  00FEF3  20                 	db	32
  1214  00FEF4  10                 	db	16
  1215  00FEF5  08                 	db	8
  1216  00FEF6  04                 	db	4
  1217  00FEF7  00                 	db	0
  1218  00FEF8  82                 	db	130
  1219  00FEF9  82                 	db	130
  1220  00FEFA  82                 	db	130
  1221  00FEFB  FE                 	db	254
  1222  00FEFC  20                 	db	32
  1223  00FEFD  40                 	db	64
  1224  00FEFE  80                 	db	128
  1225  00FEFF  40                 	db	64
  1226  00FF00  20                 	db	32
  1227  00FF01  02                 	db	2
  1228  00FF02  02                 	db	2
  1229  00FF03  02                 	db	2
  1230  00FF04  02                 	db	2
  1231  00FF05  02                 	db	2
  1232  00FF06  00                 	db	0
  1233  00FF07  C0                 	db	192
  1234  00FF08  E0                 	db	224
  1235  00FF09  10                 	db	16
  1236  00FF0A  00                 	db	0
  1237  00FF0B  04                 	db	4
  1238  00FF0C  2A                 	db	42
  1239  00FF0D  2A                 	db	42
  1240  00FF0E  1C                 	db	28
  1241  00FF0F  02                 	db	2
  1242  00FF10  FE                 	db	254
  1243  00FF11  14                 	db	20
  1244  00FF12  22                 	db	34
  1245  00FF13  22                 	db	34
  1246  00FF14  1C                 	db	28
  1247  00FF15  1C                 	db	28
  1248  00FF16  22                 	db	34
  1249  00FF17  22                 	db	34
  1250  00FF18  22                 	db	34
  1251  00FF19  14                 	db	20
  1252  00FF1A  1C                 	db	28
  1253  00FF1B  22                 	db	34
  1254  00FF1C  22                 	db	34
  1255  00FF1D  14                 	db	20
  1256  00FF1E  FE                 	db	254
  1257  00FF1F  1C                 	db	28
  1258  00FF20  2A                 	db	42
  1259  00FF21  2A                 	db	42
  1260  00FF22  2A                 	db	42
  1261  00FF23  18                 	db	24
  1262  00FF24  00                 	db	0
  1263  00FF25  10                 	db	16
  1264  00FF26  7E                 	db	126
  1265  00FF27  90                 	db	144
  1266  00FF28  40                 	db	64
  1267  00FF29  30                 	db	48
  1268  00FF2A  4A                 	db	74
  1269  00FF2B  4A                 	db	74
  1270  00FF2C  52                 	db	82
  1271  00FF2D  3C                 	db	60
  1272  00FF2E  FE                 	db	254
  1273  00FF2F  10                 	db	16
  1274  00FF30  20                 	db	32
  1275  00FF31  20                 	db	32
  1276  00FF32  1E                 	db	30
  1277  00FF33  00                 	db	0
  1278  00FF34  22                 	db	34
  1279  00FF35  BE                 	db	190
  1280  00FF36  02                 	db	2
  1281  00FF37  00                 	db	0
  1282  00FF38  04                 	db	4
  1283  00FF39  02                 	db	2
  1284  00FF3A  02                 	db	2
  1285  00FF3B  BC                 	db	188
  1286  00FF3C  00                 	db	0
  1287  00FF3D  FE                 	db	254
  1288  00FF3E  08                 	db	8
  1289  00FF3F  14                 	db	20
  1290  00FF40  22                 	db	34
  1291  00FF41  00                 	db	0
  1292  00FF42  00                 	db	0
  1293  00FF43  82                 	db	130
  1294  00FF44  FE                 	db	254
  1295  00FF45  02                 	db	2
  1296  00FF46  00                 	db	0
  1297  00FF47  3E                 	db	62
  1298  00FF48  20                 	db	32
  1299  00FF49  1E                 	db	30
  1300  00FF4A  20                 	db	32
  1301  00FF4B  1E                 	db	30
  1302  00FF4C  3E                 	db	62
  1303  00FF4D  10                 	db	16
  1304  00FF4E  20                 	db	32
  1305  00FF4F  20                 	db	32
  1306  00FF50  1E                 	db	30
  1307  00FF51  1C                 	db	28
  1308  00FF52  22                 	db	34
  1309  00FF53  22                 	db	34
  1310  00FF54  22                 	db	34
  1311  00FF55  1C                 	db	28
  1312  00FF56  3E                 	db	62
  1313  00FF57  18                 	db	24
  1314  00FF58  24                 	db	36
  1315  00FF59  24                 	db	36
  1316  00FF5A  18                 	db	24
  1317  00FF5B  18                 	db	24
  1318  00FF5C  24                 	db	36
  1319  00FF5D  24                 	db	36
  1320  00FF5E  18                 	db	24
  1321  00FF5F  3E                 	db	62
  1322  00FF60  3E                 	db	62
  1323  00FF61  10                 	db	16
  1324  00FF62  20                 	db	32
  1325  00FF63  20                 	db	32
  1326  00FF64  10                 	db	16
  1327  00FF65  12                 	db	18
  1328  00FF66  2A                 	db	42
  1329  00FF67  2A                 	db	42
  1330  00FF68  2A                 	db	42
  1331  00FF69  24                 	db	36
  1332  00FF6A  20                 	db	32
  1333  00FF6B  20                 	db	32
  1334  00FF6C  FC                 	db	252
  1335  00FF6D  22                 	db	34
  1336  00FF6E  24                 	db	36
  1337  00FF6F  3C                 	db	60
  1338  00FF70  02                 	db	2
  1339  00FF71  02                 	db	2
  1340  00FF72  04                 	db	4
  1341  00FF73  3E                 	db	62
  1342  00FF74  38                 	db	56
  1343  00FF75  04                 	db	4
  1344  00FF76  02                 	db	2
  1345  00FF77  04                 	db	4
  1346  00FF78  38                 	db	56
  1347  00FF79  3C                 	db	60
  1348  00FF7A  02                 	db	2
  1349  00FF7B  0C                 	db	12
  1350  00FF7C  02                 	db	2
  1351  00FF7D  3C                 	db	60
  1352  00FF7E  22                 	db	34
  1353  00FF7F  14                 	db	20
  1354  00FF80  08                 	db	8
  1355  00FF81  14                 	db	20
  1356  00FF82  22                 	db	34
  1357  00FF83  32                 	db	50
  1358  00FF84  0A                 	db	10
  1359  00FF85  0A                 	db	10
  1360  00FF86  0A                 	db	10
  1361  00FF87  3C                 	db	60
  1362  00FF88  22                 	db	34
  1363  00FF89  26                 	db	38
  1364  00FF8A  2A                 	db	42
  1365  00FF8B  32                 	db	50
  1366  00FF8C  22                 	db	34
  1367  00FF8D  00                 	db	0
  1368  00FF8E  10                 	db	16
  1369  00FF8F  6C                 	db	108
  1370  00FF90  82                 	db	130
  1371  00FF91  00                 	db	0
  1372  00FF92  00                 	db	0
  1373  00FF93  00                 	db	0
  1374  00FF94  FE                 	db	254
  1375  00FF95  00                 	db	0
  1376  00FF96  00                 	db	0
  1377  00FF97  00                 	db	0
  1378  00FF98  82                 	db	130
  1379  00FF99  6C                 	db	108
  1380  00FF9A  10                 	db	16
  1381  00FF9B  00                 	db	0
  1382  00FF9C  40                 	db	64
  1383  00FF9D  80                 	db	128
  1384  00FF9E  40                 	db	64
  1385  00FF9F  20                 	db	32
  1386  00FFA0  40                 	db	64
  1387  00FFA1                     __end_of_font:
  1388                           	callstack 0
  1389  00FFA1                     _logo:
  1390                           	callstack 0
  1391  00FFA1  07FF               	dw	2047
  1392  00FFA3  FFE0               	dw	65504
  1393  00FFA5  03FF               	dw	1023
  1394  00FFA7  FF80               	dw	65408
  1395  00FFA9  01FF               	dw	511
  1396  00FFAB  FF00               	dw	65280
  1397  00FFAD  01FF               	dw	511
  1398  00FFAF  FE00               	dw	65024
  1399  00FFB1  00FF               	dw	255
  1400  00FFB3  FC00               	dw	64512
  1401  00FFB5  08FF               	dw	2303
  1402  00FFB7  F808               	dw	63496
  1403  00FFB9  187F               	dw	6271
  1404  00FFBB  F818               	dw	63512
  1405  00FFBD  3C3F               	dw	15423
  1406  00FFBF  F03C               	dw	61500
  1407  00FFC1  3E3F               	dw	15935
  1408  00FFC3  F03E               	dw	61502
  1409  00FFC5  1E1F               	dw	7711
  1410  00FFC7  F01E               	dw	61470
  1411  00FFC9  1F0F               	dw	7951
  1412  00FFCB  F01F               	dw	61471
  1413  00FFCD  0F8F               	dw	3983
  1414  00FFCF  F10F               	dw	61711
  1415  00FFD1  8F8F               	dw	36751
  1416  00FFD3  F18F               	dw	61839
  1417  00FFD5  C7CF               	dw	51151
  1418  00FFD7  F3C7               	dw	62407
  1419  00FFD9  C3CF               	dw	50127
  1420  00FFDB  F7C3               	dw	63427
  1421  00FFDD  C3FF               	dw	50175
  1422  00FFDF  FF83               	dw	65411
  1423  00FFE1  C1FF               	dw	49663
  1424  00FFE3  FF81               	dw	65409
  1425  00FFE5  80FF               	dw	33023
  1426  00FFE7  FF01               	dw	65281
  1427  00FFE9  00FF               	dw	255
  1428  00FFEB  FE00               	dw	65024
  1429  00FFED  007F               	dw	127
  1430  00FFEF  FE00               	dw	65024
  1431  00FFF1  007F               	dw	127
  1432  00FFF3  FE00               	dw	65024
  1433  00FFF5  01FF               	dw	511
  1434  00FFF7  FF80               	dw	65408
  1435  00FFF9  07FF               	dw	2047
  1436  00FFFB  FFE0               	dw	65504
  1437  00FFFD                     __end_of_logo:
  1438                           	callstack 0
  1439  00FFFD  08                 	db	8
  1440  00FFFE                     __end_of_OLED_FONT_HEIGHT:
  1441                           	callstack 0
  1442  0000                     _SPI1RXB	set	128
  1443  0000                     _SPI1TXB	set	129
  1444  0000                     _SPI1TCNTL	set	130
  1445  0000                     _SPI1CON0bits	set	132
  1446  0000                     _SPI1BAUD	set	137
  1447  0000                     _SPI1CLK	set	140
  1448  0000                     _SPI1CON2	set	134
  1449  0000                     _SPI1CON1	set	133
  1450  0000                     _SPI1CON0	set	132
  1451  0000                     _PMD8	set	104
  1452  0000                     _PMD7	set	103
  1453  0000                     _PMD6	set	102
  1454  0000                     _PMD5	set	101
  1455  0000                     _PMD4	set	100
  1456  0000                     _PMD3	set	99
  1457  0000                     _PMD1	set	97
  1458  0000                     _PMD0	set	96
  1459  0000                     _ACTCON	set	172
  1460  0000                     _OSCTUNE	set	176
  1461  0000                     _OSCFRQ	set	177
  1462  0000                     _OSCEN	set	179
  1463  0000                     _OSCCON3	set	175
  1464  0000                     _OSCCON1	set	173
  1465  0000                     _SPI1SDIPPS	set	619
  1466  0000                     _RC6PPS	set	535
  1467  0000                     _RC4PPS	set	533
  1468  0000                     _SPI1SCKPPS	set	618
  1469  0000                     _RC4I2C	set	646
  1470  0000                     _RC3I2C	set	647
  1471  0000                     _RB2I2C	set	648
  1472  0000                     _RB1I2C	set	649
  1473  0000                     _INLVLF	set	1068
  1474  0000                     _INLVLE	set	1060
  1475  0000                     _INLVLD	set	1052
  1476  0000                     _INLVLC	set	1044
  1477  0000                     _INLVLB	set	1036
  1478  0000                     _INLVLA	set	1028
  1479  0000                     _SLRCONF	set	1067
  1480  0000                     _SLRCONE	set	1059
  1481  0000                     _SLRCOND	set	1051
  1482  0000                     _SLRCONC	set	1043
  1483  0000                     _SLRCONB	set	1035
  1484  0000                     _SLRCONA	set	1027
  1485  0000                     _ODCOND	set	1050
  1486  0000                     _ODCONC	set	1042
  1487  0000                     _ODCONB	set	1034
  1488  0000                     _ODCONA	set	1026
  1489  0000                     _ODCONF	set	1066
  1490  0000                     _ODCONE	set	1058
  1491  0000                     _WPUC	set	1041
  1492  0000                     _WPUA	set	1025
  1493  0000                     _WPUB	set	1033
  1494  0000                     _WPUE	set	1057
  1495  0000                     _WPUF	set	1065
  1496  0000                     _WPUD	set	1049
  1497  0000                     _ANSELA	set	1024
  1498  0000                     _ANSELF	set	1064
  1499  0000                     _ANSELE	set	1056
  1500  0000                     _ANSELB	set	1032
  1501  0000                     _ANSELC	set	1040
  1502  0000                     _ANSELD	set	1048
  1503  0000                     _PIR3bits	set	1201
  1504  0000                     _TRISCbits	set	1224
  1505  0000                     _TRISD	set	1225
  1506  0000                     _TRISC	set	1224
  1507  0000                     _TRISB	set	1223
  1508  0000                     _TRISA	set	1222
  1509  0000                     _TRISF	set	1227
  1510  0000                     _TRISE	set	1226
  1511  0000                     _LATC	set	1216
  1512  0000                     _LATB	set	1215
  1513  0000                     _LATF	set	1219
  1514  0000                     _LATA	set	1214
  1515  0000                     _LATD	set	1217
  1516  0000                     _LATE	set	1218
  1517  0000                     _LATAbits	set	1214
  1518  0000                     _LATBbits	set	1215
  1519  0000                     _LATDbits	set	1217
  1520  00FFFE  00                 	db	0	; dummy byte at the end
  1521  0000                     
  1522                           ; #config settings
  1523                           
  1524                           	psect	cinit
  1525  011704                     __pcinit:
  1526                           	callstack 0
  1527  011704                     start_initialization:
  1528                           	callstack 0
  1529  011704                     __initialization:
  1530                           	callstack 0
  1531                           
  1532                           ; Initialize objects allocated to COMRAM (1 bytes)
  1533                           ; load TBLPTR registers with __pidataCOMRAM
  1534  011704  0E0A               	movlw	low __pidataCOMRAM
  1535  011706  6EF6               	movwf	tblptrl,c
  1536  011708  0E19               	movlw	high __pidataCOMRAM
  1537  01170A  6EF7               	movwf	tblptrh,c
  1538  01170C  0E01               	movlw	low (__pidataCOMRAM shr (0+16))
  1539  01170E  6EF8               	movwf	tblptru,c
  1540  011710  0009               	tblrd		*+	;fetch initializer
  1541  011712  0061 F3D4  F551    	movff	tablat,__pdataCOMRAM
  1542                           
  1543                           ; Clear objects allocated to BIGRAM (448 bytes)
  1544  011718  EE09  F040         	lfsr	0,__pbssBIGRAM
  1545  01171C  EE10 F1C0          	lfsr	1,448
  1546  011720                     clear_0:
  1547  011720  6AEE               	clrf	postinc0,c
  1548  011722  50E5               	movf	postdec1,w,c
  1549  011724  50E1               	movf	fsr1l,w,c
  1550  011726  E1FC               	bnz	clear_0
  1551  011728  50E2               	movf	fsr1h,w,c
  1552  01172A  E1FA               	bnz	clear_0
  1553                           
  1554                           ; Clear objects allocated to COMRAM (4 bytes)
  1555  01172C  6A50               	clrf	(__pbssCOMRAM+3)& (0+255),c
  1556  01172E  6A4F               	clrf	(__pbssCOMRAM+2)& (0+255),c
  1557  011730  6A4E               	clrf	(__pbssCOMRAM+1)& (0+255),c
  1558  011732  6A4D               	clrf	__pbssCOMRAM& (0+255),c
  1559  011734                     end_of_initialization:
  1560                           	callstack 0
  1561  011734                     __end_of__initialization:
  1562                           	callstack 0
  1563  011734  0100               	movlb	0
  1564  011736  EF71  F08C         	goto	_main	;jump to C main() function
  1565                           
  1566                           	psect	bssCOMRAM
  1567  00054D                     __pbssCOMRAM:
  1568                           	callstack 0
  1569  00054D                     _background_color:
  1570                           	callstack 0
  1571  00054D                     	ds	2
  1572  00054F                     _streamingMode:
  1573                           	callstack 0
  1574  00054F                     	ds	1
  1575  000550                     _exampleInitialized:
  1576                           	callstack 0
  1577  000550                     	ds	1
  1578                           
  1579                           	psect	dataCOMRAM
  1580  000551                     __pdataCOMRAM:
  1581                           	callstack 0
  1582  000551                     oledC_example@shift:
  1583                           	callstack 0
  1584  000551                     	ds	1
  1585                           
  1586                           	psect	bssBIGRAM
  1587  002440                     __pbssBIGRAM:
  1588                           	callstack 0
  1589  002440                     _allParsedShapes:
  1590                           	callstack 0
  1591  002440                     	ds	448
  1592                           
  1593                           	psect	cstackCOMRAM
  1594  000501                     __pcstackCOMRAM:
  1595                           	callstack 0
  1596  000501                     ??_SPI1_Open:
  1597  000501                     ?_oledC_getShape:
  1598                           	callstack 0
  1599  000501                     ?___wmul:
  1600                           	callstack 0
  1601  000501                     ?___awdiv:
  1602                           	callstack 0
  1603  000501                     startStreamingIfNeeded@cmd:
  1604                           	callstack 0
  1605  000501                     SPI1_ExchangeByte@data:
  1606                           	callstack 0
  1607  000501                     oledC_createShape@params:
  1608                           	callstack 0
  1609  000501                     DELAY_milliseconds@milliseconds:
  1610                           	callstack 0
  1611  000501                     DELAY_microseconds@microseconds:
  1612                           	callstack 0
  1613  000501                     ___wmul@multiplier:
  1614                           	callstack 0
  1615  000501                     ___awdiv@dividend:
  1616                           	callstack 0
  1617                           
  1618                           ; 2 bytes @ 0x0
  1619  000501                     	ds	1
  1620  000502                     SPI1_Open@spi1UniqueConfiguration:
  1621                           	callstack 0
  1622  000502                     SPI1_WriteBlock@block:
  1623                           	callstack 0
  1624                           
  1625                           ; 2 bytes @ 0x1
  1626  000502                     	ds	1
  1627  000503                     ??_DELAY_milliseconds:
  1628  000503                     ?_exchangeTwoBytes:
  1629                           	callstack 0
  1630  000503                     exchangeTwoBytes@byte2:
  1631                           	callstack 0
  1632  000503                     oledC_createShape@newShape:
  1633                           	callstack 0
  1634  000503                     _oledC_getShape$1889:
  1635                           	callstack 0
  1636  000503                     ___wmul@multiplicand:
  1637                           	callstack 0
  1638  000503                     ___awdiv@divisor:
  1639                           	callstack 0
  1640                           
  1641                           ; 2 bytes @ 0x2
  1642  000503                     	ds	1
  1643  000504                     SPI1_WriteBlock@blockSize:
  1644                           	callstack 0
  1645                           
  1646                           ; 2 bytes @ 0x3
  1647  000504                     	ds	1
  1648  000505                     ??_oledC_createShape:
  1649  000505                     ??_exchangeTwoBytes:
  1650  000505                     oledC_getShape@index:
  1651                           	callstack 0
  1652  000505                     ___awdiv@counter:
  1653                           	callstack 0
  1654  000505                     ___wmul@product:
  1655                           	callstack 0
  1656                           
  1657                           ; 2 bytes @ 0x4
  1658  000505                     	ds	1
  1659  000506                     ___awdiv@sign:
  1660                           	callstack 0
  1661  000506                     SPI1_WriteBlock@data:
  1662                           	callstack 0
  1663                           
  1664                           ; 2 bytes @ 0x5
  1665  000506                     	ds	1
  1666  000507                     oledC_createShape@shape_type:
  1667                           	callstack 0
  1668  000507                     exchangeTwoBytes@byte1:
  1669                           	callstack 0
  1670  000507                     ___awdiv@quotient:
  1671                           	callstack 0
  1672                           
  1673                           ; 2 bytes @ 0x6
  1674  000507                     	ds	1
  1675  000508                     oledC_addShape@shape_type:
  1676                           	callstack 0
  1677  000508                     oledC_sendCommand@payload:
  1678                           	callstack 0
  1679                           
  1680                           ; 2 bytes @ 0x7
  1681  000508                     	ds	1
  1682  000509                     oledC_addShape@params:
  1683                           	callstack 0
  1684                           
  1685                           ; 2 bytes @ 0x8
  1686  000509                     	ds	1
  1687  00050A                     oledC_sendCommand@payload_size:
  1688                           	callstack 0
  1689                           
  1690                           ; 1 bytes @ 0x9
  1691  00050A                     	ds	1
  1692  00050B                     oledC_sendCommand@cmd:
  1693                           	callstack 0
  1694  00050B                     oledC_addShape@newShape:
  1695                           	callstack 0
  1696                           
  1697                           ; 2 bytes @ 0xA
  1698  00050B                     	ds	1
  1699  00050C                     oledC_setRowAddressBounds@max:
  1700                           	callstack 0
  1701  00050C                     oledC_setColumnAddressBounds@max:
  1702                           	callstack 0
  1703  00050C                     oledC_setSleepMode@on:
  1704                           	callstack 0
  1705  00050C                     oledC_setDisplayOrientation@payload:
  1706                           	callstack 0
  1707  00050C                     oledC_sendColorInt@raw:
  1708                           	callstack 0
  1709                           
  1710                           ; 2 bytes @ 0xB
  1711  00050C                     	ds	1
  1712  00050D                     _oledC_setSleepMode$1647:
  1713                           	callstack 0
  1714  00050D                     oledC_setRowAddressBounds@payload:
  1715                           	callstack 0
  1716  00050D                     _oledC_setColumnAddressBounds$1642:
  1717                           	callstack 0
  1718  00050D                     _oledC_addShape$1896:
  1719                           	callstack 0
  1720                           
  1721                           ; 2 bytes @ 0xC
  1722  00050D                     	ds	1
  1723  00050E                     
  1724                           ; 1 bytes @ 0xD
  1725  00050E                     	ds	1
  1726  00050F                     oledC_addShape@drawIndex:
  1727                           	callstack 0
  1728  00050F                     _oledC_setRowAddressBounds$1636:
  1729                           	callstack 0
  1730  00050F                     _oledC_setColumnAddressBounds$1643:
  1731                           	callstack 0
  1732                           
  1733                           ; 2 bytes @ 0xE
  1734  00050F                     	ds	1
  1735  000510                     oledC_addShape@i:
  1736                           	callstack 0
  1737                           
  1738                           ; 1 bytes @ 0xF
  1739  000510                     	ds	1
  1740  000511                     _oledC_setRowAddressBounds$1637:
  1741                           	callstack 0
  1742  000511                     oledC_setColumnAddressBounds@payload:
  1743                           	callstack 0
  1744                           
  1745                           ; 2 bytes @ 0x10
  1746  000511                     	ds	2
  1747  000513                     oledC_setRowAddressBounds@min:
  1748                           	callstack 0
  1749  000513                     oledC_setColumnAddressBounds@min:
  1750                           	callstack 0
  1751                           
  1752                           ; 1 bytes @ 0x12
  1753  000513                     	ds	1
  1754  000514                     oledC_DrawPoint@y:
  1755                           	callstack 0
  1756  000514                     oledC_DrawRectangle@start_y:
  1757                           	callstack 0
  1758  000514                     oledC_clearScreen@x:
  1759                           	callstack 0
  1760                           
  1761                           ; 1 bytes @ 0x13
  1762  000514                     	ds	1
  1763  000515                     oledC_DrawRectangle@end_x:
  1764                           	callstack 0
  1765  000515                     oledC_clearScreen@y:
  1766                           	callstack 0
  1767  000515                     oledC_DrawPoint@color:
  1768                           	callstack 0
  1769                           
  1770                           ; 2 bytes @ 0x14
  1771  000515                     	ds	1
  1772  000516                     oledC_DrawRectangle@end_y:
  1773                           	callstack 0
  1774  000516                     oledC_setBackground@color:
  1775                           	callstack 0
  1776                           
  1777                           ; 2 bytes @ 0x15
  1778  000516                     	ds	1
  1779  000517                     oledC_DrawPoint@x:
  1780                           	callstack 0
  1781  000517                     oledC_DrawRectangle@color:
  1782                           	callstack 0
  1783                           
  1784                           ; 2 bytes @ 0x16
  1785  000517                     	ds	1
  1786  000518                     oledC_DrawCircle@y0:
  1787                           	callstack 0
  1788  000518                     oledC_DrawRing@y0:
  1789                           	callstack 0
  1790                           
  1791                           ; 1 bytes @ 0x17
  1792  000518                     	ds	1
  1793  000519                     ??_oledC_DrawRectangle:
  1794  000519                     oledC_DrawCircle@radius:
  1795                           	callstack 0
  1796  000519                     oledC_DrawRing@radius:
  1797                           	callstack 0
  1798                           
  1799                           ; 1 bytes @ 0x18
  1800  000519                     	ds	1
  1801  00051A                     oledC_DrawRing@width:
  1802                           	callstack 0
  1803  00051A                     oledC_DrawCircle@color:
  1804                           	callstack 0
  1805                           
  1806                           ; 2 bytes @ 0x19
  1807  00051A                     	ds	1
  1808  00051B                     oledC_DrawRing@color:
  1809                           	callstack 0
  1810                           
  1811                           ; 2 bytes @ 0x1A
  1812  00051B                     	ds	1
  1813  00051C                     ??_oledC_DrawCircle:
  1814                           
  1815                           ; 1 bytes @ 0x1B
  1816  00051C                     	ds	1
  1817  00051D                     ??_oledC_DrawRing:
  1818  00051D                     _oledC_DrawCircle$300:
  1819                           	callstack 0
  1820                           
  1821                           ; 2 bytes @ 0x1C
  1822  00051D                     	ds	1
  1823  00051E                     oledC_DrawRectangle@x:
  1824                           	callstack 0
  1825  00051E                     oledC_DrawRing@d:
  1826                           	callstack 0
  1827                           
  1828                           ; 2 bytes @ 0x1D
  1829  00051E                     	ds	1
  1830  00051F                     oledC_DrawRectangle@y:
  1831                           	callstack 0
  1832  00051F                     oledC_DrawCircle@d:
  1833                           	callstack 0
  1834                           
  1835                           ; 2 bytes @ 0x1E
  1836  00051F                     	ds	1
  1837  000520                     oledC_DrawRing@x0:
  1838                           	callstack 0
  1839  000520                     oledC_DrawRectangle@start_x:
  1840                           	callstack 0
  1841                           
  1842                           ; 1 bytes @ 0x1F
  1843  000520                     	ds	1
  1844  000521                     oledC_DrawCircle@xCurr:
  1845                           	callstack 0
  1846  000521                     oledC_DrawRing@x:
  1847                           	callstack 0
  1848  000521                     oledC_DrawCharacter@y:
  1849                           	callstack 0
  1850  000521                     oledC_DrawBitmap@y:
  1851                           	callstack 0
  1852                           
  1853                           ; 1 bytes @ 0x20
  1854  000521                     	ds	1
  1855  000522                     oledC_DrawCircle@yMax:
  1856                           	callstack 0
  1857  000522                     oledC_DrawRing@y:
  1858                           	callstack 0
  1859  000522                     oledC_DrawCharacter@sx:
  1860                           	callstack 0
  1861  000522                     oledC_DrawBitmap@color:
  1862                           	callstack 0
  1863                           
  1864                           ; 2 bytes @ 0x21
  1865  000522                     	ds	1
  1866  000523                     oledC_DrawCircle@x0:
  1867                           	callstack 0
  1868  000523                     oledC_DrawCharacter@sy:
  1869                           	callstack 0
  1870                           
  1871                           ; 1 bytes @ 0x22
  1872  000523                     	ds	1
  1873  000524                     oledC_DrawCircle@x:
  1874                           	callstack 0
  1875  000524                     oledC_DrawCharacter@ch:
  1876                           	callstack 0
  1877  000524                     oledC_DrawBitmap@sx:
  1878                           	callstack 0
  1879                           
  1880                           ; 1 bytes @ 0x23
  1881  000524                     	ds	1
  1882  000525                     oledC_DrawCircle@y:
  1883                           	callstack 0
  1884  000525                     oledC_DrawBitmap@sy:
  1885                           	callstack 0
  1886  000525                     oledC_DrawCharacter@color:
  1887                           	callstack 0
  1888                           
  1889                           ; 2 bytes @ 0x24
  1890  000525                     	ds	1
  1891  000526                     oledC_DrawLine@y0:
  1892                           	callstack 0
  1893  000526                     oledC_DrawBitmap@bitmap:
  1894                           	callstack 0
  1895                           
  1896                           ; 2 bytes @ 0x25
  1897  000526                     	ds	1
  1898  000527                     ??_oledC_DrawCharacter:
  1899  000527                     oledC_DrawLine@x1:
  1900                           	callstack 0
  1901                           
  1902                           ; 1 bytes @ 0x26
  1903  000527                     	ds	1
  1904  000528                     oledC_DrawLine@y1:
  1905                           	callstack 0
  1906  000528                     oledC_DrawBitmap@bitmap_length:
  1907                           	callstack 0
  1908                           
  1909                           ; 1 bytes @ 0x27
  1910  000528                     	ds	1
  1911  000529                     ??_oledC_DrawBitmap:
  1912  000529                     oledC_DrawLine@width:
  1913                           	callstack 0
  1914                           
  1915                           ; 1 bytes @ 0x28
  1916  000529                     	ds	1
  1917  00052A                     oledC_DrawLine@color:
  1918                           	callstack 0
  1919                           
  1920                           ; 2 bytes @ 0x29
  1921  00052A                     	ds	1
  1922  00052B                     oledC_DrawBitmap@x:
  1923                           	callstack 0
  1924  00052B                     oledC_DrawCharacter@f:
  1925                           	callstack 0
  1926                           
  1927                           ; 2 bytes @ 0x2A
  1928  00052B                     	ds	1
  1929  00052C                     ??_oledC_DrawLine:
  1930  00052C                     oledC_DrawBitmap@rowBits:
  1931                           	callstack 0
  1932                           
  1933                           ; 4 bytes @ 0x2B
  1934  00052C                     	ds	1
  1935  00052D                     oledC_DrawCharacter@curr_char_byte:
  1936                           	callstack 0
  1937                           
  1938                           ; 1 bytes @ 0x2C
  1939  00052D                     	ds	1
  1940  00052E                     oledC_DrawCharacter@x:
  1941                           	callstack 0
  1942                           
  1943                           ; 1 bytes @ 0x2D
  1944  00052E                     	ds	1
  1945  00052F                     oledC_DrawCharacter@i_x:
  1946                           	callstack 0
  1947                           
  1948                           ; 2 bytes @ 0x2E
  1949  00052F                     	ds	1
  1950  000530                     _oledC_DrawBitmap$363:
  1951                           	callstack 0
  1952                           
  1953                           ; 2 bytes @ 0x2F
  1954  000530                     	ds	1
  1955  000531                     _oledC_DrawLine$322:
  1956                           	callstack 0
  1957  000531                     oledC_DrawCharacter@i_y:
  1958                           	callstack 0
  1959                           
  1960                           ; 2 bytes @ 0x30
  1961  000531                     	ds	1
  1962  000532                     _oledC_DrawBitmap$364:
  1963                           	callstack 0
  1964                           
  1965                           ; 2 bytes @ 0x31
  1966  000532                     	ds	1
  1967  000533                     oledC_DrawLine@x0:
  1968                           	callstack 0
  1969  000533                     oledC_DrawString@y:
  1970                           	callstack 0
  1971                           
  1972                           ; 1 bytes @ 0x32
  1973  000533                     	ds	1
  1974  000534                     oledC_DrawLine@dx:
  1975                           	callstack 0
  1976  000534                     oledC_DrawString@sx:
  1977                           	callstack 0
  1978  000534                     oledC_DrawBitmap@curr_y:
  1979                           	callstack 0
  1980                           
  1981                           ; 1 bytes @ 0x33
  1982  000534                     	ds	1
  1983  000535                     oledC_DrawLine@dy:
  1984                           	callstack 0
  1985  000535                     oledC_DrawString@sy:
  1986                           	callstack 0
  1987  000535                     oledC_DrawBitmap@curr_x:
  1988                           	callstack 0
  1989                           
  1990                           ; 1 bytes @ 0x34
  1991  000535                     	ds	1
  1992  000536                     oledC_DrawLine@D:
  1993                           	callstack 0
  1994  000536                     oledC_DrawBitmap@rowNum:
  1995                           	callstack 0
  1996  000536                     oledC_DrawString@string:
  1997                           	callstack 0
  1998                           
  1999                           ; 2 bytes @ 0x35
  2000  000536                     	ds	1
  2001  000537                     oledC_DrawLine@x:
  2002                           	callstack 0
  2003  000537                     oledC_DrawBitmap@bitmap_width:
  2004                           	callstack 0
  2005                           
  2006                           ; 1 bytes @ 0x36
  2007  000537                     	ds	1
  2008  000538                     oledC_DrawLine@y:
  2009                           	callstack 0
  2010  000538                     oledC_DrawBitmap@bitNum:
  2011                           	callstack 0
  2012  000538                     oledC_DrawString@color:
  2013                           	callstack 0
  2014                           
  2015                           ; 2 bytes @ 0x37
  2016  000538                     	ds	2
  2017  00053A                     oledC_DrawString@x:
  2018                           	callstack 0
  2019                           
  2020                           ; 1 bytes @ 0x39
  2021  00053A                     	ds	1
  2022  00053B                     drawPoint@shape:
  2023                           	callstack 0
  2024  00053B                     drawCircle@shape:
  2025                           	callstack 0
  2026  00053B                     drawRing@shape:
  2027                           	callstack 0
  2028  00053B                     drawRectangle@shape:
  2029                           	callstack 0
  2030  00053B                     drawLine@shape:
  2031                           	callstack 0
  2032  00053B                     drawCharacter@shape:
  2033                           	callstack 0
  2034  00053B                     drawString@shape:
  2035                           	callstack 0
  2036  00053B                     drawBitmap@shape:
  2037                           	callstack 0
  2038  00053B                     dummyshape@shape:
  2039                           	callstack 0
  2040                           
  2041                           ; 2 bytes @ 0x3A
  2042  00053B                     	ds	2
  2043  00053D                     oledC_redrawIndex@indShape:
  2044                           	callstack 0
  2045  00053D                     oledC_redrawSome@endInd:
  2046                           	callstack 0
  2047  00053D                     oledC_eraseShape@eraseColor:
  2048                           	callstack 0
  2049                           
  2050                           ; 2 bytes @ 0x3C
  2051  00053D                     	ds	1
  2052  00053E                     oledC_redrawSome@startInd:
  2053                           	callstack 0
  2054                           
  2055                           ; 1 bytes @ 0x3D
  2056  00053E                     	ds	1
  2057  00053F                     _oledC_redrawSome$1908:
  2058                           	callstack 0
  2059  00053F                     oledC_eraseShape@saveColor:
  2060                           	callstack 0
  2061                           
  2062                           ; 2 bytes @ 0x3E
  2063  00053F                     	ds	2
  2064  000541                     oledC_redrawSome@i:
  2065                           	callstack 0
  2066  000541                     oledC_eraseShape@indShape:
  2067                           	callstack 0
  2068                           
  2069                           ; 1 bytes @ 0x40
  2070  000541                     	ds	1
  2071  000542                     oledC_eraseShape@ourShape:
  2072                           	callstack 0
  2073  000542                     oledC_example_setup@params:
  2074                           	callstack 0
  2075                           
  2076                           ; 9 bytes @ 0x41
  2077  000542                     	ds	9
  2078  00054B                     oledC_example@moveIt:
  2079                           	callstack 0
  2080                           
  2081                           ; 2 bytes @ 0x4A
  2082  00054B                     	ds	2
  2083  00054D                     
  2084                           ; 1 bytes @ 0x4C
  2085 ;;
  2086 ;;Main: autosize = 0, tempsize = 0, incstack = 0, save=0
  2087 ;;
  2088 ;; *************** function _main *****************
  2089 ;; Defined at:
  2090 ;;		line 49 in file "main.c"
  2091 ;; Parameters:    Size  Location     Type
  2092 ;;		None
  2093 ;; Auto vars:     Size  Location     Type
  2094 ;;		None
  2095 ;; Return value:  Size  Location     Type
  2096 ;;                  1    wreg      void 
  2097 ;; Registers used:
  2098 ;;		wreg, fsr1l, fsr1h, fsr2l, fsr2h, status,2, status,0, pclath, tosl, tblptrl, tblptrh, tblptru, prodl, prodh, cstack
  2099 ;; Tracked objects:
  2100 ;;		On entry : 0/0
  2101 ;;		On exit  : 0/0
  2102 ;;		Unchanged: 0/0
  2103 ;; Data sizes:     COMRAM   BANK5   BANK6   BANK7   BANK8   BANK9  BANK10  BANK11  BANK12  BANK13  BANK14  BANK15  BANK1
      +6  BANK17  BANK18  BANK19  BANK20  BANK21  BANK22  BANK23  BANK24  BANK25  BANK26  BANK27  BANK28  BANK29  BANK30  BANK3
      +1  BANK32  BANK33  BANK34  BANK35  BANK36  BANK37
  2104 ;;      Params:         0       0       0       0       0       0       0       0       0       0       0       0       
      +0       0       0       0       0       0       0       0       0       0       0       0       0       0       0       
      +0       0       0       0       0       0       0
  2105 ;;      Locals:         0       0       0       0       0       0       0       0       0       0       0       0       
      +0       0       0       0       0       0       0       0       0       0       0       0       0       0       0       
      +0       0       0       0       0       0       0
  2106 ;;      Temps:          0       0       0       0       0       0       0       0       0       0       0       0       
      +0       0       0       0       0       0       0       0       0       0       0       0       0       0       0       
      +0       0       0       0       0       0       0
  2107 ;;      Totals:         0       0       0       0       0       0       0       0       0       0       0       0       
      +0       0       0       0       0       0       0       0       0       0       0       0       0       0       0       
      +0       0       0       0       0       0       0
  2108 ;;Total ram usage:        0 bytes
  2109 ;; Hardware stack levels required when called: 14
  2110 ;; This function calls:
  2111 ;;		_SYSTEM_Initialize
  2112 ;; This function is called by:
  2113 ;;		Startup code after reset
  2114 ;; This function uses a non-reentrant model
  2115 ;;
  2116                           
  2117                           	psect	text0
  2118  0118E2                     __ptext0:
  2119                           	callstack 0
  2120  0118E2                     _main:
  2121                           	callstack 114
  2122  0118E2                     
  2123                           ;main.c: 52:     SYSTEM_Initialize();
  2124  0118E2  EC44  F08C         	call	_SYSTEM_Initialize	;wreg free
  2125  0118E6                     l686:
  2126  0118E6  EF73  F08C         	goto	l686
  2127  0118EA  EFFE  F0FF         	goto	start
  2128  0118EE                     __end_of_main:
  2129                           	callstack 0
  2130                           
  2131 ;; *************** function _SYSTEM_Initialize *****************
  2132 ;; Defined at:
  2133 ;;		line 50 in file "mcc_generated_files/mcc.c"
  2134 ;; Parameters:    Size  Location     Type
  2135 ;;		None
  2136 ;; Auto vars:     Size  Location     Type
  2137 ;;		None
  2138 ;; Return value:  Size  Location     Type
  2139 ;;                  1    wreg      void 
  2140 ;; Registers used:
  2141 ;;		wreg, fsr1l, fsr1h, fsr2l, fsr2h, status,2, status,0, pclath, tosl, tblptrl, tblptrh, tblptru, prodl, prodh, cstack
  2142 ;; Tracked objects:
  2143 ;;		On entry : 0/0
  2144 ;;		On exit  : 0/0
  2145 ;;		Unchanged: 0/0
  2146 ;; Data sizes:     COMRAM   BANK5   BANK6   BANK7   BANK8   BANK9  BANK10  BANK11  BANK12  BANK13  BANK14  BANK15  BANK1
      +6  BANK17  BANK18  BANK19  BANK20  BANK21  BANK22  BANK23  BANK24  BANK25  BANK26  BANK27  BANK28  BANK29  BANK30  BANK3
      +1  BANK32  BANK33  BANK34  BANK35  BANK36  BANK37
  2147 ;;      Params:         0       0       0       0       0       0       0       0       0       0       0       0       
      +0       0       0       0       0       0       0       0       0       0       0       0       0       0       0       
      +0       0       0       0       0       0       0
  2148 ;;      Locals:         0       0       0       0       0       0       0       0       0       0       0       0       
      +0       0       0       0       0       0       0       0       0       0       0       0       0       0       0       
      +0       0       0       0       0       0       0
  2149 ;;      Temps:          0       0       0       0       0       0       0       0       0       0       0       0       
      +0       0       0       0       0       0       0       0       0       0       0       0       0       0       0       
      +0       0       0       0       0       0       0
  2150 ;;      Totals:         0       0       0       0       0       0       0       0       0       0       0       0       
      +0       0       0       0       0       0       0       0       0       0       0       0       0       0       0       
      +0       0       0       0       0       0       0
  2151 ;;Total ram usage:        0 bytes
  2152 ;; Hardware stack levels used: 1
  2153 ;; Hardware stack levels required when called: 13
  2154 ;; This function calls:
  2155 ;;		_OSCILLATOR_Initialize
  2156 ;;		_PIN_MANAGER_Initialize
  2157 ;;		_PMD_Initialize
  2158 ;;		_SPI1_Initialize
  2159 ;;		_oledC_example
  2160 ;;		_oledC_setup
  2161 ;; This function is called by:
  2162 ;;		_main
  2163 ;; This function uses a non-reentrant model
  2164 ;;
  2165                           
  2166                           	psect	text1
  2167  011888                     __ptext1:
  2168                           	callstack 0
  2169  011888                     _SYSTEM_Initialize:
  2170                           	callstack 114
  2171  011888                     
  2172                           ;mcc_generated_files/mcc.c: 52:     PMD_Initialize();
  2173  011888  EC13  F08C         	call	_PMD_Initialize	;wreg free
  2174                           
  2175                           ;mcc_generated_files/mcc.c: 53:     PIN_MANAGER_Initialize();
  2176  01188C  EC77  F086         	call	_PIN_MANAGER_Initialize	;wreg free
  2177                           
  2178                           ;mcc_generated_files/mcc.c: 54:     OSCILLATOR_Initialize();
  2179  011890  EC36  F08C         	call	_OSCILLATOR_Initialize	;wreg free
  2180                           
  2181                           ;mcc_generated_files/mcc.c: 55:     SPI1_Initialize();
  2182  011894  EC51  F08C         	call	_SPI1_Initialize	;wreg free
  2183  011898                     
  2184                           ;mcc_generated_files/mcc.c: 56:     oledC_setup();
  2185  011898  ECC1  F089         	call	_oledC_setup	;wreg free
  2186  01189C                     
  2187                           ;mcc_generated_files/mcc.c: 57:     oledC_example();
  2188  01189C  EC5D  F089         	call	_oledC_example	;wreg free
  2189  0118A0  0012               	return		;funcret
  2190  0118A2                     __end_of_SYSTEM_Initialize:
  2191                           	callstack 0
  2192                           
  2193 ;; *************** function _oledC_setup *****************
  2194 ;; Defined at:
  2195 ;;		line 202 in file "mcc_generated_files/oledC.c"
  2196 ;; Parameters:    Size  Location     Type
  2197 ;;		None
  2198 ;; Auto vars:     Size  Location     Type
  2199 ;;		None
  2200 ;; Return value:  Size  Location     Type
  2201 ;;                  1    wreg      void 
  2202 ;; Registers used:
  2203 ;;		wreg, fsr2l, fsr2h, status,2, status,0, pclath, tosl, tblptrl, tblptrh, tblptru, prodl, prodh, cstack
  2204 ;; Tracked objects:
  2205 ;;		On entry : 0/0
  2206 ;;		On exit  : 0/0
  2207 ;;		Unchanged: 0/0
  2208 ;; Data sizes:     COMRAM   BANK5   BANK6   BANK7   BANK8   BANK9  BANK10  BANK11  BANK12  BANK13  BANK14  BANK15  BANK1
      +6  BANK17  BANK18  BANK19  BANK20  BANK21  BANK22  BANK23  BANK24  BANK25  BANK26  BANK27  BANK28  BANK29  BANK30  BANK3
      +1  BANK32  BANK33  BANK34  BANK35  BANK36  BANK37
  2209 ;;      Params:         0       0       0       0       0       0       0       0       0       0       0       0       
      +0       0       0       0       0       0       0       0       0       0       0       0       0       0       0       
      +0       0       0       0       0       0       0
  2210 ;;      Locals:         0       0       0       0       0       0       0       0       0       0       0       0       
      +0       0       0       0       0       0       0       0       0       0       0       0       0       0       0       
      +0       0       0       0       0       0       0
  2211 ;;      Temps:          0       0       0       0       0       0       0       0       0       0       0       0       
      +0       0       0       0       0       0       0       0       0       0       0       0       0       0       0       
      +0       0       0       0       0       0       0
  2212 ;;      Totals:         0       0       0       0       0       0       0       0       0       0       0       0       
      +0       0       0       0       0       0       0       0       0       0       0       0       0       0       0       
      +0       0       0       0       0       0       0
  2213 ;;Total ram usage:        0 bytes
  2214 ;; Hardware stack levels used: 1
  2215 ;; Hardware stack levels required when called: 4
  2216 ;; This function calls:
  2217 ;;		_DELAY_microseconds
  2218 ;;		_DELAY_milliseconds
  2219 ;;		_oledC_setColumnAddressBounds
  2220 ;;		_oledC_setDisplayOrientation
  2221 ;;		_oledC_setRowAddressBounds
  2222 ;;		_oledC_setSleepMode
  2223 ;; This function is called by:
  2224 ;;		_SYSTEM_Initialize
  2225 ;; This function uses a non-reentrant model
  2226 ;;
  2227                           
  2228                           	psect	text2
  2229  011382                     __ptext2:
  2230                           	callstack 0
  2231  011382                     _oledC_setup:
  2232                           	callstack 122
  2233  011382                     
  2234                           ;mcc_generated_files/oledC.c: 204:     LATAbits.LATA6 = 0;
  2235  011382  9CBE               	bcf	190,6,c	;volatile
  2236                           
  2237                           ;mcc_generated_files/oledC.c: 205:     LATAbits.LATA7 = 1;
  2238  011384  8EBE               	bsf	190,7,c	;volatile
  2239                           
  2240                           ;mcc_generated_files/oledC.c: 206:     LATAbits.LATA0 = 0;
  2241  011386  90BE               	bcf	190,0,c	;volatile
  2242  011388                     
  2243                           ;mcc_generated_files/oledC.c: 207:     DELAY_milliseconds(1);
  2244  011388  0E00               	movlw	0
  2245  01138A  6E02               	movwf	(DELAY_milliseconds@milliseconds+1)^(0+1280),c
  2246  01138C  0E01               	movlw	1
  2247  01138E  6E01               	movwf	DELAY_milliseconds@milliseconds^(0+1280),c
  2248  011390  ECE7  F08B         	call	_DELAY_milliseconds	;wreg free
  2249  011394                     
  2250                           ;mcc_generated_files/oledC.c: 208:     LATAbits.LATA7 = 0;
  2251  011394  9EBE               	bcf	190,7,c	;volatile
  2252                           
  2253                           ;mcc_generated_files/oledC.c: 209:     DELAY_microseconds(2);
  2254  011396  0E00               	movlw	0
  2255  011398  6E02               	movwf	(DELAY_microseconds@microseconds+1)^(0+1280),c
  2256  01139A  0E02               	movlw	2
  2257  01139C  6E01               	movwf	DELAY_microseconds@microseconds^(0+1280),c
  2258  01139E  EC99  F08A         	call	_DELAY_microseconds	;wreg free
  2259  0113A2                     
  2260                           ;mcc_generated_files/oledC.c: 210:     LATAbits.LATA7 = 1;
  2261  0113A2  8EBE               	bsf	190,7,c	;volatile
  2262  0113A4                     
  2263                           ;mcc_generated_files/oledC.c: 211:     LATAbits.LATA6 = 1;
  2264  0113A4  8CBE               	bsf	190,6,c	;volatile
  2265                           
  2266                           ;mcc_generated_files/oledC.c: 212:     DELAY_milliseconds(1);
  2267  0113A6  0E00               	movlw	0
  2268  0113A8  6E02               	movwf	(DELAY_milliseconds@milliseconds+1)^(0+1280),c
  2269  0113AA  0E01               	movlw	1
  2270  0113AC  6E01               	movwf	DELAY_milliseconds@milliseconds^(0+1280),c
  2271  0113AE  ECE7  F08B         	call	_DELAY_milliseconds	;wreg free
  2272  0113B2                     
  2273                           ;mcc_generated_files/oledC.c: 213:     oledC_setSleepMode(0);
  2274  0113B2  0E00               	movlw	0
  2275  0113B4  ECB7  F08B         	call	_oledC_setSleepMode
  2276  0113B8                     
  2277                           ;mcc_generated_files/oledC.c: 214:     DELAY_milliseconds(200);
  2278  0113B8  0E00               	movlw	0
  2279  0113BA  6E02               	movwf	(DELAY_milliseconds@milliseconds+1)^(0+1280),c
  2280  0113BC  0EC8               	movlw	200
  2281  0113BE  6E01               	movwf	DELAY_milliseconds@milliseconds^(0+1280),c
  2282  0113C0  ECE7  F08B         	call	_DELAY_milliseconds	;wreg free
  2283                           
  2284                           ;mcc_generated_files/oledC.c: 215:     oledC_setColumnAddressBounds(0, 95);
  2285  0113C4  0E5F               	movlw	95
  2286  0113C6  6E0C               	movwf	oledC_setColumnAddressBounds@max^(0+1280),c
  2287  0113C8  0E00               	movlw	0
  2288  0113CA  EC85  F088         	call	_oledC_setColumnAddressBounds
  2289                           
  2290                           ;mcc_generated_files/oledC.c: 216:     oledC_setRowAddressBounds(0, 95);
  2291  0113CE  0E5F               	movlw	95
  2292  0113D0  6E0C               	movwf	oledC_setRowAddressBounds@max^(0+1280),c
  2293  0113D2  0E00               	movlw	0
  2294  0113D4  EC90  F089         	call	_oledC_setRowAddressBounds
  2295                           
  2296                           ;mcc_generated_files/oledC.c: 217:     oledC_setDisplayOrientation();
  2297  0113D8  ECD0  F08B         	call	_oledC_setDisplayOrientation	;wreg free
  2298  0113DC  0012               	return		;funcret
  2299  0113DE                     __end_of_oledC_setup:
  2300                           	callstack 0
  2301                           
  2302 ;; *************** function _oledC_setSleepMode *****************
  2303 ;; Defined at:
  2304 ;;		line 131 in file "mcc_generated_files/oledC.c"
  2305 ;; Parameters:    Size  Location     Type
  2306 ;;  on              1    wreg     _Bool 
  2307 ;; Auto vars:     Size  Location     Type
  2308 ;;  on              1   11[COMRAM] _Bool 
  2309 ;; Return value:  Size  Location     Type
  2310 ;;                  1    wreg      void 
  2311 ;; Registers used:
  2312 ;;		wreg, fsr2l, fsr2h, status,2, status,0, pclath, tosl, tblptrl, tblptrh, tblptru, prodl, prodh, cstack
  2313 ;; Tracked objects:
  2314 ;;		On entry : 0/0
  2315 ;;		On exit  : 0/0
  2316 ;;		Unchanged: 0/0
  2317 ;; Data sizes:     COMRAM   BANK5   BANK6   BANK7   BANK8   BANK9  BANK10  BANK11  BANK12  BANK13  BANK14  BANK15  BANK1
      +6  BANK17  BANK18  BANK19  BANK20  BANK21  BANK22  BANK23  BANK24  BANK25  BANK26  BANK27  BANK28  BANK29  BANK30  BANK3
      +1  BANK32  BANK33  BANK34  BANK35  BANK36  BANK37
  2318 ;;      Params:         0       0       0       0       0       0       0       0       0       0       0       0       
      +0       0       0       0       0       0       0       0       0       0       0       0       0       0       0       
      +0       0       0       0       0       0       0
  2319 ;;      Locals:         2       0       0       0       0       0       0       0       0       0       0       0       
      +0       0       0       0       0       0       0       0       0       0       0       0       0       0       0       
      +0       0       0       0       0       0       0
  2320 ;;      Temps:          0       0       0       0       0       0       0       0       0       0       0       0       
      +0       0       0       0       0       0       0       0       0       0       0       0       0       0       0       
      +0       0       0       0       0       0       0
  2321 ;;      Totals:         2       0       0       0       0       0       0       0       0       0       0       0       
      +0       0       0       0       0       0       0       0       0       0       0       0       0       0       0       
      +0       0       0       0       0       0       0
  2322 ;;Total ram usage:        2 bytes
  2323 ;; Hardware stack levels used: 1
  2324 ;; Hardware stack levels required when called: 3
  2325 ;; This function calls:
  2326 ;;		_oledC_sendCommand
  2327 ;; This function is called by:
  2328 ;;		_oledC_setup
  2329 ;; This function uses a non-reentrant model
  2330 ;;
  2331                           
  2332                           	psect	text3
  2333  01176E                     __ptext3:
  2334                           	callstack 0
  2335  01176E                     _oledC_setSleepMode:
  2336                           	callstack 122
  2337                           
  2338                           ;incstack = 0
  2339                           ;oledC_setSleepMode@on stored from wreg
  2340  01176E  6E0C               	movwf	oledC_setSleepMode@on^(0+1280),c
  2341  011770                     
  2342                           ;mcc_generated_files/oledC.c: 131: void oledC_setSleepMode(_Bool on);mcc_generated_files
      +                          /oledC.c: 132: {;mcc_generated_files/oledC.c: 133:     oledC_sendCommand(on ? OLEDC_CMD_
      +                          SET_SLEEP_MODE_ON : OLEDC_CMD_SET_SLEEP_MODE_OFF, ((void*)0), 0);
  2343  011770  500C               	movf	oledC_setSleepMode@on^(0+1280),w,c
  2344  011772  A4D8               	btfss	status,2,c
  2345  011774  EFBE  F08B         	goto	u1861
  2346  011778  EFC0  F08B         	goto	u1860
  2347  01177C                     u1861:
  2348  01177C  EFC4  F08B         	goto	l3159
  2349  011780                     u1860:
  2350  011780  0EAF               	movlw	175
  2351  011782  6E0D               	movwf	_oledC_setSleepMode$1647^(0+1280),c
  2352  011784  EFC6  F08B         	goto	l3161
  2353  011788                     l3159:
  2354  011788  0EAE               	movlw	174
  2355  01178A  6E0D               	movwf	_oledC_setSleepMode$1647^(0+1280),c
  2356  01178C                     l3161:
  2357  01178C  0E00               	movlw	0
  2358  01178E  6E08               	movwf	oledC_sendCommand@payload^(0+1280),c
  2359  011790  0E00               	movlw	0
  2360  011792  6E09               	movwf	(oledC_sendCommand@payload+1)^(0+1280),c
  2361  011794  0E00               	movlw	0
  2362  011796  6E0A               	movwf	oledC_sendCommand@payload_size^(0+1280),c
  2363  011798  500D               	movf	_oledC_setSleepMode$1647^(0+1280),w,c
  2364  01179A  ECE1  F083         	call	_oledC_sendCommand
  2365  01179E  0012               	return		;funcret
  2366  0117A0                     __end_of_oledC_setSleepMode:
  2367                           	callstack 0
  2368                           
  2369 ;; *************** function _oledC_setDisplayOrientation *****************
  2370 ;; Defined at:
  2371 ;;		line 136 in file "mcc_generated_files/oledC.c"
  2372 ;; Parameters:    Size  Location     Type
  2373 ;;		None
  2374 ;; Auto vars:     Size  Location     Type
  2375 ;;  payload         1   11[COMRAM] unsigned char [1]
  2376 ;; Return value:  Size  Location     Type
  2377 ;;                  1    wreg      void 
  2378 ;; Registers used:
  2379 ;;		wreg, fsr2l, fsr2h, status,2, status,0, pclath, tosl, tblptrl, tblptrh, tblptru, prodl, prodh, cstack
  2380 ;; Tracked objects:
  2381 ;;		On entry : 0/0
  2382 ;;		On exit  : 0/0
  2383 ;;		Unchanged: 0/0
  2384 ;; Data sizes:     COMRAM   BANK5   BANK6   BANK7   BANK8   BANK9  BANK10  BANK11  BANK12  BANK13  BANK14  BANK15  BANK1
      +6  BANK17  BANK18  BANK19  BANK20  BANK21  BANK22  BANK23  BANK24  BANK25  BANK26  BANK27  BANK28  BANK29  BANK30  BANK3
      +1  BANK32  BANK33  BANK34  BANK35  BANK36  BANK37
  2385 ;;      Params:         0       0       0       0       0       0       0       0       0       0       0       0       
      +0       0       0       0       0       0       0       0       0       0       0       0       0       0       0       
      +0       0       0       0       0       0       0
  2386 ;;      Locals:         1       0       0       0       0       0       0       0       0       0       0       0       
      +0       0       0       0       0       0       0       0       0       0       0       0       0       0       0       
      +0       0       0       0       0       0       0
  2387 ;;      Temps:          0       0       0       0       0       0       0       0       0       0       0       0       
      +0       0       0       0       0       0       0       0       0       0       0       0       0       0       0       
      +0       0       0       0       0       0       0
  2388 ;;      Totals:         1       0       0       0       0       0       0       0       0       0       0       0       
      +0       0       0       0       0       0       0       0       0       0       0       0       0       0       0       
      +0       0       0       0       0       0       0
  2389 ;;Total ram usage:        1 bytes
  2390 ;; Hardware stack levels used: 1
  2391 ;; Hardware stack levels required when called: 3
  2392 ;; This function calls:
  2393 ;;		_oledC_sendCommand
  2394 ;; This function is called by:
  2395 ;;		_oledC_setup
  2396 ;; This function uses a non-reentrant model
  2397 ;;
  2398                           
  2399                           	psect	text4
  2400  0117A0                     __ptext4:
  2401                           	callstack 0
  2402  0117A0                     _oledC_setDisplayOrientation:
  2403                           	callstack 122
  2404  0117A0                     
  2405                           ;mcc_generated_files/oledC.c: 138:     uint8_t payload[1];;mcc_generated_files/oledC.c: 
      +                          139:     payload[0] = 0x32;
  2406  0117A0  0E32               	movlw	50
  2407  0117A2  6E0C               	movwf	oledC_setDisplayOrientation@payload^(0+1280),c
  2408  0117A4                     
  2409                           ;mcc_generated_files/oledC.c: 140:     oledC_sendCommand(OLEDC_CMD_SET_REMAP_DUAL_COM_LI
      +                          NE_MODE, payload, 1);
  2410  0117A4  0E0C               	movlw	low oledC_setDisplayOrientation@payload
  2411  0117A6  6E08               	movwf	oledC_sendCommand@payload^(0+1280),c
  2412  0117A8  0E05               	movlw	high oledC_setDisplayOrientation@payload
  2413  0117AA  6E09               	movwf	(oledC_sendCommand@payload+1)^(0+1280),c
  2414  0117AC  0E01               	movlw	1
  2415  0117AE  6E0A               	movwf	oledC_sendCommand@payload_size^(0+1280),c
  2416  0117B0  0EA0               	movlw	160
  2417  0117B2  ECE1  F083         	call	_oledC_sendCommand
  2418  0117B6                     
  2419                           ;mcc_generated_files/oledC.c: 141:     payload[0] = 0x20;
  2420  0117B6  0E20               	movlw	32
  2421  0117B8  6E0C               	movwf	oledC_setDisplayOrientation@payload^(0+1280),c
  2422                           
  2423                           ;mcc_generated_files/oledC.c: 142:     oledC_sendCommand(OLEDC_CMD_SET_DISPLAY_START_LIN
      +                          E, payload, 1);
  2424  0117BA  0E0C               	movlw	low oledC_setDisplayOrientation@payload
  2425  0117BC  6E08               	movwf	oledC_sendCommand@payload^(0+1280),c
  2426  0117BE  0E05               	movlw	high oledC_setDisplayOrientation@payload
  2427  0117C0  6E09               	movwf	(oledC_sendCommand@payload+1)^(0+1280),c
  2428  0117C2  0E01               	movlw	1
  2429  0117C4  6E0A               	movwf	oledC_sendCommand@payload_size^(0+1280),c
  2430  0117C6  0EA1               	movlw	161
  2431  0117C8  ECE1  F083         	call	_oledC_sendCommand
  2432  0117CC  0012               	return		;funcret
  2433  0117CE                     __end_of_oledC_setDisplayOrientation:
  2434                           	callstack 0
  2435                           
  2436 ;; *************** function _DELAY_milliseconds *****************
  2437 ;; Defined at:
  2438 ;;		line 38 in file "mcc_generated_files/delay.c"
  2439 ;; Parameters:    Size  Location     Type
  2440 ;;  milliseconds    2    0[COMRAM] unsigned short 
  2441 ;; Auto vars:     Size  Location     Type
  2442 ;;		None
  2443 ;; Return value:  Size  Location     Type
  2444 ;;                  1    wreg      void 
  2445 ;; Registers used:
  2446 ;;		wreg, status,2, status,0
  2447 ;; Tracked objects:
  2448 ;;		On entry : 0/0
  2449 ;;		On exit  : 0/0
  2450 ;;		Unchanged: 0/0
  2451 ;; Data sizes:     COMRAM   BANK5   BANK6   BANK7   BANK8   BANK9  BANK10  BANK11  BANK12  BANK13  BANK14  BANK15  BANK1
      +6  BANK17  BANK18  BANK19  BANK20  BANK21  BANK22  BANK23  BANK24  BANK25  BANK26  BANK27  BANK28  BANK29  BANK30  BANK3
      +1  BANK32  BANK33  BANK34  BANK35  BANK36  BANK37
  2452 ;;      Params:         2       0       0       0       0       0       0       0       0       0       0       0       
      +0       0       0       0       0       0       0       0       0       0       0       0       0       0       0       
      +0       0       0       0       0       0       0
  2453 ;;      Locals:         0       0       0       0       0       0       0       0       0       0       0       0       
      +0       0       0       0       0       0       0       0       0       0       0       0       0       0       0       
      +0       0       0       0       0       0       0
  2454 ;;      Temps:          1       0       0       0       0       0       0       0       0       0       0       0       
      +0       0       0       0       0       0       0       0       0       0       0       0       0       0       0       
      +0       0       0       0       0       0       0
  2455 ;;      Totals:         3       0       0       0       0       0       0       0       0       0       0       0       
      +0       0       0       0       0       0       0       0       0       0       0       0       0       0       0       
      +0       0       0       0       0       0       0
  2456 ;;Total ram usage:        3 bytes
  2457 ;; Hardware stack levels used: 1
  2458 ;; This function calls:
  2459 ;;		Nothing
  2460 ;; This function is called by:
  2461 ;;		_oledC_setup
  2462 ;; This function uses a non-reentrant model
  2463 ;;
  2464                           
  2465                           	psect	text5
  2466  0117CE                     __ptext5:
  2467                           	callstack 0
  2468  0117CE                     _DELAY_milliseconds:
  2469                           	callstack 125
  2470  0117CE                     
  2471                           ;mcc_generated_files/delay.c: 39:     while(milliseconds--){
  2472  0117CE  EFF0  F08B         	goto	l3143
  2473  0117D2                     l3141:
  2474                           
  2475                           ;mcc_generated_files/delay.c: 40:         _delay((unsigned long)((1)*(8000000/4000.0)));
  2476  0117D2  0E03               	movlw	3
  2477  0117D4  6E03               	movwf	??_DELAY_milliseconds^(0+1280),c
  2478  0117D6  0E98               	movlw	152
  2479  0117D8                     u2047:
  2480  0117D8  2EE8               	decfsz	wreg,f,c
  2481  0117DA  D7FE               	bra	u2047
  2482  0117DC  2E03               	decfsz	??_DELAY_milliseconds^(0+1280),f,c
  2483  0117DE  D7FC               	bra	u2047
  2484  0117E0                     l3143:
  2485                           
  2486                           ;mcc_generated_files/delay.c: 39:     while(milliseconds--){
  2487  0117E0  0601               	decf	DELAY_milliseconds@milliseconds^(0+1280),f,c
  2488  0117E2  A0D8               	btfss	status,0,c
  2489  0117E4  0602               	decf	(DELAY_milliseconds@milliseconds+1)^(0+1280),f,c
  2490  0117E6  2801               	incf	DELAY_milliseconds@milliseconds^(0+1280),w,c
  2491  0117E8  E106               	bnz	u1831
  2492  0117EA  2802               	incf	(DELAY_milliseconds@milliseconds+1)^(0+1280),w,c
  2493  0117EC  A4D8               	btfss	status,2,c
  2494  0117EE  EFFB  F08B         	goto	u1831
  2495  0117F2  EFFD  F08B         	goto	u1830
  2496  0117F6                     u1831:
  2497  0117F6  EFE9  F08B         	goto	l3141
  2498  0117FA                     u1830:
  2499  0117FA  0012               	return		;funcret
  2500  0117FC                     __end_of_DELAY_milliseconds:
  2501                           	callstack 0
  2502                           
  2503 ;; *************** function _DELAY_microseconds *****************
  2504 ;; Defined at:
  2505 ;;		line 49 in file "mcc_generated_files/delay.c"
  2506 ;; Parameters:    Size  Location     Type
  2507 ;;  microseconds    2    0[COMRAM] unsigned short 
  2508 ;; Auto vars:     Size  Location     Type
  2509 ;;		None
  2510 ;; Return value:  Size  Location     Type
  2511 ;;                  1    wreg      void 
  2512 ;; Registers used:
  2513 ;;		wreg, status,2, status,0
  2514 ;; Tracked objects:
  2515 ;;		On entry : 0/0
  2516 ;;		On exit  : 0/0
  2517 ;;		Unchanged: 0/0
  2518 ;; Data sizes:     COMRAM   BANK5   BANK6   BANK7   BANK8   BANK9  BANK10  BANK11  BANK12  BANK13  BANK14  BANK15  BANK1
      +6  BANK17  BANK18  BANK19  BANK20  BANK21  BANK22  BANK23  BANK24  BANK25  BANK26  BANK27  BANK28  BANK29  BANK30  BANK3
      +1  BANK32  BANK33  BANK34  BANK35  BANK36  BANK37
  2519 ;;      Params:         2       0       0       0       0       0       0       0       0       0       0       0       
      +0       0       0       0       0       0       0       0       0       0       0       0       0       0       0       
      +0       0       0       0       0       0       0
  2520 ;;      Locals:         0       0       0       0       0       0       0       0       0       0       0       0       
      +0       0       0       0       0       0       0       0       0       0       0       0       0       0       0       
      +0       0       0       0       0       0       0
  2521 ;;      Temps:          0       0       0       0       0       0       0       0       0       0       0       0       
      +0       0       0       0       0       0       0       0       0       0       0       0       0       0       0       
      +0       0       0       0       0       0       0
  2522 ;;      Totals:         2       0       0       0       0       0       0       0       0       0       0       0       
      +0       0       0       0       0       0       0       0       0       0       0       0       0       0       0       
      +0       0       0       0       0       0       0
  2523 ;;Total ram usage:        2 bytes
  2524 ;; Hardware stack levels used: 1
  2525 ;; This function calls:
  2526 ;;		Nothing
  2527 ;; This function is called by:
  2528 ;;		_oledC_setup
  2529 ;; This function uses a non-reentrant model
  2530 ;;
  2531                           
  2532                           	psect	text6
  2533  011532                     __ptext6:
  2534                           	callstack 0
  2535  011532                     _DELAY_microseconds:
  2536                           	callstack 125
  2537  011532                     
  2538                           ;mcc_generated_files/delay.c: 50:     while( microseconds >= 32)
  2539  011532  EFA3  F08A         	goto	l3151
  2540  011536                     l3147:
  2541                           
  2542                           ;mcc_generated_files/delay.c: 51:     {;mcc_generated_files/delay.c: 52:         _delay(
      +                          (unsigned long)((32)*(8000000/4000000.0)));
  2543  011536  0E15               	movlw	21
  2544  011538                     u2057:
  2545  011538  2EE8               	decfsz	wreg,f,c
  2546  01153A  D7FE               	bra	u2057
  2547  01153C  F000               	nop	
  2548  01153E                     
  2549                           ;mcc_generated_files/delay.c: 53:         microseconds -= 32;
  2550  01153E  0E20               	movlw	32
  2551  011540  5E01               	subwf	DELAY_microseconds@microseconds^(0+1280),f,c
  2552  011542  0E00               	movlw	0
  2553  011544  5A02               	subwfb	(DELAY_microseconds@microseconds+1)^(0+1280),f,c
  2554  011546                     l3151:
  2555                           
  2556                           ;mcc_generated_files/delay.c: 50:     while( microseconds >= 32)
  2557  011546  5002               	movf	(DELAY_microseconds@microseconds+1)^(0+1280),w,c
  2558  011548  E107               	bnz	u1841
  2559  01154A  0E20               	movlw	32
  2560  01154C  5C01               	subwf	DELAY_microseconds@microseconds^(0+1280),w,c
  2561  01154E  B0D8               	btfsc	status,0,c
  2562  011550  EFAC  F08A         	goto	u1841
  2563  011554  EFAE  F08A         	goto	u1840
  2564  011558                     u1841:
  2565  011558  EF9B  F08A         	goto	l3147
  2566  01155C                     u1840:
  2567  01155C  EFB1  F08A         	goto	l3153
  2568  011560                     l540:
  2569                           
  2570                           ;mcc_generated_files/delay.c: 57:     {;mcc_generated_files/delay.c: 58:         _delay(
      +                          (unsigned long)((1)*(8000000/4000000.0)));
  2571  011560  D000               	nop2		;2 cycle nop
  2572  011562                     l3153:
  2573                           
  2574                           ;mcc_generated_files/delay.c: 56:     while(microseconds--)
  2575  011562  0601               	decf	DELAY_microseconds@microseconds^(0+1280),f,c
  2576  011564  A0D8               	btfss	status,0,c
  2577  011566  0602               	decf	(DELAY_microseconds@microseconds+1)^(0+1280),f,c
  2578  011568  2801               	incf	DELAY_microseconds@microseconds^(0+1280),w,c
  2579  01156A  E106               	bnz	u1851
  2580  01156C  2802               	incf	(DELAY_microseconds@microseconds+1)^(0+1280),w,c
  2581  01156E  A4D8               	btfss	status,2,c
  2582  011570  EFBC  F08A         	goto	u1851
  2583  011574  EFBE  F08A         	goto	u1850
  2584  011578                     u1851:
  2585  011578  EFB0  F08A         	goto	l540
  2586  01157C                     u1850:
  2587  01157C  0012               	return		;funcret
  2588  01157E                     __end_of_DELAY_microseconds:
  2589                           	callstack 0
  2590                           
  2591 ;; *************** function _oledC_example *****************
  2592 ;; Defined at:
  2593 ;;		line 117 in file "mcc_generated_files/oledC_example.c"
  2594 ;; Parameters:    Size  Location     Type
  2595 ;;		None
  2596 ;; Auto vars:     Size  Location     Type
  2597 ;;  moveIt          2   74[COMRAM] PTR struct shape
  2598 ;;		 -> allParsedShapes(448), 
  2599 ;;  shift_from      1    0        const unsigned char 
  2600 ;; Return value:  Size  Location     Type
  2601 ;;                  1    wreg      void 
  2602 ;; Registers used:
  2603 ;;		wreg, fsr1l, fsr1h, fsr2l, fsr2h, status,2, status,0, pclath, tosl, tblptrl, tblptrh, tblptru, prodl, prodh, cstack
  2604 ;; Tracked objects:
  2605 ;;		On entry : 0/0
  2606 ;;		On exit  : 0/0
  2607 ;;		Unchanged: 0/0
  2608 ;; Data sizes:     COMRAM   BANK5   BANK6   BANK7   BANK8   BANK9  BANK10  BANK11  BANK12  BANK13  BANK14  BANK15  BANK1
      +6  BANK17  BANK18  BANK19  BANK20  BANK21  BANK22  BANK23  BANK24  BANK25  BANK26  BANK27  BANK28  BANK29  BANK30  BANK3
      +1  BANK32  BANK33  BANK34  BANK35  BANK36  BANK37
  2609 ;;      Params:         0       0       0       0       0       0       0       0       0       0       0       0       
      +0       0       0       0       0       0       0       0       0       0       0       0       0       0       0       
      +0       0       0       0       0       0       0
  2610 ;;      Locals:         2       0       0       0       0       0       0       0       0       0       0       0       
      +0       0       0       0       0       0       0       0       0       0       0       0       0       0       0       
      +0       0       0       0       0       0       0
  2611 ;;      Temps:          0       0       0       0       0       0       0       0       0       0       0       0       
      +0       0       0       0       0       0       0       0       0       0       0       0       0       0       0       
      +0       0       0       0       0       0       0
  2612 ;;      Totals:         2       0       0       0       0       0       0       0       0       0       0       0       
      +0       0       0       0       0       0       0       0       0       0       0       0       0       0       0       
      +0       0       0       0       0       0       0
  2613 ;;Total ram usage:        2 bytes
  2614 ;; Hardware stack levels used: 1
  2615 ;; Hardware stack levels required when called: 12
  2616 ;; This function calls:
  2617 ;;		_oledC_eraseShape
  2618 ;;		_oledC_example_setup
  2619 ;;		_oledC_getShape
  2620 ;;		_oledC_redrawIndex
  2621 ;; This function is called by:
  2622 ;;		_SYSTEM_Initialize
  2623 ;; This function uses a non-reentrant model
  2624 ;;
  2625                           
  2626                           	psect	text7
  2627  0112BA                     __ptext7:
  2628                           	callstack 0
  2629  0112BA                     _oledC_example:
  2630                           	callstack 114
  2631  0112BA                     
  2632                           ;mcc_generated_files/oledC_example.c: 121:     if(!exampleInitialized)
  2633  0112BA  5050               	movf	_exampleInitialized^(0+1280),w,c
  2634  0112BC  A4D8               	btfss	status,2,c
  2635  0112BE  EF63  F089         	goto	u1871
  2636  0112C2  EF65  F089         	goto	u1870
  2637  0112C6                     u1871:
  2638  0112C6  EF67  F089         	goto	l3173
  2639  0112CA                     u1870:
  2640  0112CA                     
  2641                           ;mcc_generated_files/oledC_example.c: 122:     {;mcc_generated_files/oledC_example.c: 12
      +                          3:         oledC_example_setup();
  2642  0112CA  EC16  F086         	call	_oledC_example_setup	;wreg free
  2643  0112CE                     l3173:
  2644                           
  2645                           ;mcc_generated_files/oledC_example.c: 125:     shape_t *moveIt = oledC_getShape(0);
  2646  0112CE  0E00               	movlw	0
  2647  0112D0  EC65  F08B         	call	_oledC_getShape
  2648  0112D4  C501  F54B         	movff	?_oledC_getShape,oledC_example@moveIt
  2649  0112D8  C502  F54C         	movff	?_oledC_getShape+1,oledC_example@moveIt+1
  2650  0112DC                     
  2651                           ;mcc_generated_files/oledC_example.c: 127:     oledC_eraseShape(0, background_color);
  2652  0112DC  C54D  F53D         	movff	_background_color,oledC_eraseShape@eraseColor
  2653  0112E0  C54E  F53E         	movff	_background_color+1,oledC_eraseShape@eraseColor+1
  2654  0112E4  0E00               	movlw	0
  2655  0112E6  ECC5  F087         	call	_oledC_eraseShape
  2656  0112EA                     
  2657                           ;mcc_generated_files/oledC_example.c: 128:     moveIt->params.bitmap.x = shift_from + sh
      +                          ift;
  2658  0112EA  EE20 F006          	lfsr	2,6
  2659  0112EE  504B               	movf	oledC_example@moveIt^(0+1280),w,c
  2660  0112F0  26D9               	addwf	fsr2l,f,c
  2661  0112F2  504C               	movf	(oledC_example@moveIt+1)^(0+1280),w,c
  2662  0112F4  22DA               	addwfc	fsr2h,f,c
  2663  0112F6  5051               	movf	oledC_example@shift^(0+1280),w,c
  2664  0112F8  0F0F               	addlw	15
  2665  0112FA  6EDF               	movwf	indf2,c
  2666  0112FC                     
  2667                           ;mcc_generated_files/oledC_example.c: 129:     shift += 4;
  2668  0112FC  0E04               	movlw	4
  2669  0112FE  2651               	addwf	oledC_example@shift^(0+1280),f,c
  2670  011300                     
  2671                           ;mcc_generated_files/oledC_example.c: 130:     if(shift > 24)
  2672  011300  5051               	movf	oledC_example@shift^(0+1280),w,c
  2673  011302  0A80               	xorlw	128
  2674  011304  0F67               	addlw	-153
  2675  011306  A0D8               	btfss	status,0,c
  2676  011308  EF88  F089         	goto	u1881
  2677  01130C  EF8A  F089         	goto	u1880
  2678  011310                     u1881:
  2679  011310  EF8C  F089         	goto	l3185
  2680  011314                     u1880:
  2681  011314                     
  2682                           ;mcc_generated_files/oledC_example.c: 131:     {;mcc_generated_files/oledC_example.c: 13
      +                          2:         shift = -24;
  2683  011314  0EE8               	movlw	232
  2684  011316  6E51               	movwf	oledC_example@shift^(0+1280),c
  2685  011318                     l3185:
  2686                           
  2687                           ;mcc_generated_files/oledC_example.c: 134:     oledC_redrawIndex(0);
  2688  011318  0E00               	movlw	0
  2689  01131A  EC09  F08B         	call	_oledC_redrawIndex
  2690  01131E  0012               	return		;funcret
  2691  011320                     __end_of_oledC_example:
  2692                           	callstack 0
  2693                           
  2694 ;; *************** function _oledC_redrawIndex *****************
  2695 ;; Defined at:
  2696 ;;		line 76 in file "mcc_generated_files/oledC_shapeHandler.c"
  2697 ;; Parameters:    Size  Location     Type
  2698 ;;  indShape        1    wreg     unsigned char 
  2699 ;; Auto vars:     Size  Location     Type
  2700 ;;  indShape        1   60[COMRAM] unsigned char 
  2701 ;; Return value:  Size  Location     Type
  2702 ;;                  1    wreg      void 
  2703 ;; Registers used:
  2704 ;;		wreg, fsr2l, fsr2h, status,2, status,0, pclath, tosl, tblptrl, tblptrh, tblptru, prodl, prodh, cstack
  2705 ;; Tracked objects:
  2706 ;;		On entry : 0/0
  2707 ;;		On exit  : 0/0
  2708 ;;		Unchanged: 0/0
  2709 ;; Data sizes:     COMRAM   BANK5   BANK6   BANK7   BANK8   BANK9  BANK10  BANK11  BANK12  BANK13  BANK14  BANK15  BANK1
      +6  BANK17  BANK18  BANK19  BANK20  BANK21  BANK22  BANK23  BANK24  BANK25  BANK26  BANK27  BANK28  BANK29  BANK30  BANK3
      +1  BANK32  BANK33  BANK34  BANK35  BANK36  BANK37
  2710 ;;      Params:         0       0       0       0       0       0       0       0       0       0       0       0       
      +0       0       0       0       0       0       0       0       0       0       0       0       0       0       0       
      +0       0       0       0       0       0       0
  2711 ;;      Locals:         1       0       0       0       0       0       0       0       0       0       0       0       
      +0       0       0       0       0       0       0       0       0       0       0       0       0       0       0       
      +0       0       0       0       0       0       0
  2712 ;;      Temps:          0       0       0       0       0       0       0       0       0       0       0       0       
      +0       0       0       0       0       0       0       0       0       0       0       0       0       0       0       
      +0       0       0       0       0       0       0
  2713 ;;      Totals:         1       0       0       0       0       0       0       0       0       0       0       0       
      +0       0       0       0       0       0       0       0       0       0       0       0       0       0       0       
      +0       0       0       0       0       0       0
  2714 ;;Total ram usage:        1 bytes
  2715 ;; Hardware stack levels used: 1
  2716 ;; Hardware stack levels required when called: 9
  2717 ;; This function calls:
  2718 ;;		_drawBitmap
  2719 ;;		_drawCharacter
  2720 ;;		_drawCircle
  2721 ;;		_drawLine
  2722 ;;		_drawPoint
  2723 ;;		_drawRectangle
  2724 ;;		_drawRing
  2725 ;;		_drawString
  2726 ;;		_dummyshape
  2727 ;; This function is called by:
  2728 ;;		_oledC_example
  2729 ;; This function uses a non-reentrant model
  2730 ;;
  2731                           
  2732                           	psect	text8
  2733  011612                     __ptext8:
  2734                           	callstack 0
  2735  011612                     _oledC_redrawIndex:
  2736                           	callstack 116
  2737                           
  2738                           ;incstack = 0
  2739                           ;oledC_redrawIndex@indShape stored from wreg
  2740  011612  6E3D               	movwf	oledC_redrawIndex@indShape^(0+1280),c
  2741  011614                     
  2742                           ;mcc_generated_files/oledC_shapeHandler.c: 76: void oledC_redrawIndex(uint8_t indShape);
      +                          mcc_generated_files/oledC_shapeHandler.c: 77: {;mcc_generated_files/oledC_shapeHandler.c
      +                          : 78:     allParsedShapes[indShape].draw(&allParsedShapes[indShape]);
  2743  011614  503D               	movf	oledC_redrawIndex@indShape^(0+1280),w,c
  2744  011616  0D0E               	mullw	14
  2745  011618  0E40               	movlw	low _allParsedShapes
  2746  01161A  24F3               	addwf	243,w,c
  2747  01161C  6E3B               	movwf	dummyshape@shape^(0+1280),c
  2748  01161E  0E24               	movlw	high _allParsedShapes
  2749  011620  20F4               	addwfc	prodh,w,c
  2750  011622  6E3C               	movwf	(dummyshape@shape+1)^(0+1280),c
  2751  011624  503D               	movf	oledC_redrawIndex@indShape^(0+1280),w,c
  2752  011626  0D0E               	mullw	14
  2753  011628  0E41               	movlw	low (_allParsedShapes+1)
  2754  01162A  24F3               	addwf	243,w,c
  2755  01162C  6ED9               	movwf	fsr2l,c
  2756  01162E  0E24               	movlw	high (_allParsedShapes+1)
  2757  011630  20F4               	addwfc	prodh,w,c
  2758  011632  6EDA               	movwf	fsr2h,c
  2759  011634  D802               	call	u1828
  2760  011636  EF27  F08B         	goto	u1829
  2761  01163A                     u1828:
  2762  01163A  0005               	push	
  2763  01163C  6EFA               	movwf	pclath,c
  2764  01163E  50DE               	movf	postinc2,w,c
  2765  011640  6EFD               	movwf	tosl,c
  2766  011642  50DE               	movf	postinc2,w,c
  2767  011644  6EFE               	movwf	tosh,c
  2768  011646  50DE               	movf	postinc2,w,c
  2769  011648  6EFF               	movwf	tosu,c
  2770  01164A  50FA               	movf	pclath,w,c
  2771  01164C  0012               	return		;indir
  2772  01164E                     u1829:
  2773  01164E  0012               	return		;funcret
  2774  011650                     __end_of_oledC_redrawIndex:
  2775                           	callstack 0
  2776                           
  2777 ;; *************** function _oledC_example_setup *****************
  2778 ;; Defined at:
  2779 ;;		line 81 in file "mcc_generated_files/oledC_example.c"
  2780 ;; Parameters:    Size  Location     Type
  2781 ;;		None
  2782 ;; Auto vars:     Size  Location     Type
  2783 ;;  params          9   65[COMRAM] struct shape_params_t
  2784 ;; Return value:  Size  Location     Type
  2785 ;;                  1    wreg      void 
  2786 ;; Registers used:
  2787 ;;		wreg, fsr1l, fsr1h, fsr2l, fsr2h, status,2, status,0, pclath, tosl, tblptrl, tblptrh, tblptru, prodl, prodh, cstack
  2788 ;; Tracked objects:
  2789 ;;		On entry : 0/0
  2790 ;;		On exit  : 0/0
  2791 ;;		Unchanged: 0/0
  2792 ;; Data sizes:     COMRAM   BANK5   BANK6   BANK7   BANK8   BANK9  BANK10  BANK11  BANK12  BANK13  BANK14  BANK15  BANK1
      +6  BANK17  BANK18  BANK19  BANK20  BANK21  BANK22  BANK23  BANK24  BANK25  BANK26  BANK27  BANK28  BANK29  BANK30  BANK3
      +1  BANK32  BANK33  BANK34  BANK35  BANK36  BANK37
  2793 ;;      Params:         0       0       0       0       0       0       0       0       0       0       0       0       
      +0       0       0       0       0       0       0       0       0       0       0       0       0       0       0       
      +0       0       0       0       0       0       0
  2794 ;;      Locals:         9       0       0       0       0       0       0       0       0       0       0       0       
      +0       0       0       0       0       0       0       0       0       0       0       0       0       0       0       
      +0       0       0       0       0       0       0
  2795 ;;      Temps:          0       0       0       0       0       0       0       0       0       0       0       0       
      +0       0       0       0       0       0       0       0       0       0       0       0       0       0       0       
      +0       0       0       0       0       0       0
  2796 ;;      Totals:         9       0       0       0       0       0       0       0       0       0       0       0       
      +0       0       0       0       0       0       0       0       0       0       0       0       0       0       0       
      +0       0       0       0       0       0       0
  2797 ;;Total ram usage:        9 bytes
  2798 ;; Hardware stack levels used: 1
  2799 ;; Hardware stack levels required when called: 11
  2800 ;; This function calls:
  2801 ;;		_oledC_addShape
  2802 ;;		_oledC_redrawAll
  2803 ;;		_oledC_setBackground
  2804 ;; This function is called by:
  2805 ;;		_oledC_example
  2806 ;; This function uses a non-reentrant model
  2807 ;;
  2808                           
  2809                           	psect	text9
  2810  010C2C                     __ptext9:
  2811                           	callstack 0
  2812  010C2C                     _oledC_example_setup:
  2813                           	callstack 114
  2814  010C2C  0EFF               	movlw	255
  2815  010C2E  6E17               	movwf	(oledC_setBackground@color+1)^(0+1280),c
  2816  010C30  6816               	setf	oledC_setBackground@color^(0+1280),c
  2817  010C32  EC6A  F08C         	call	_oledC_setBackground	;wreg free
  2818  010C36  0EF8               	movlw	248
  2819  010C38  6E43               	movwf	(oledC_example_setup@params+1)^(0+1280),c
  2820  010C3A  0E00               	movlw	0
  2821  010C3C  6E42               	movwf	oledC_example_setup@params^(0+1280),c
  2822  010C3E                     
  2823                           ;mcc_generated_files/oledC_example.c: 87:     params.bitmap.x = 14;
  2824  010C3E  0E0E               	movlw	14
  2825  010C40  6E44               	movwf	(oledC_example_setup@params+2)^(0+1280),c
  2826  010C42                     
  2827                           ;mcc_generated_files/oledC_example.c: 88:     params.bitmap.y = 25;
  2828  010C42  0E19               	movlw	25
  2829  010C44  6E45               	movwf	(oledC_example_setup@params+3)^(0+1280),c
  2830  010C46                     
  2831                           ;mcc_generated_files/oledC_example.c: 89:     params.bitmap.sx = 2;
  2832  010C46  0E02               	movlw	2
  2833  010C48  6E46               	movwf	(oledC_example_setup@params+4)^(0+1280),c
  2834  010C4A                     
  2835                           ;mcc_generated_files/oledC_example.c: 90:     params.bitmap.sy = 2;
  2836  010C4A  0E02               	movlw	2
  2837  010C4C  6E47               	movwf	(oledC_example_setup@params+5)^(0+1280),c
  2838  010C4E                     
  2839                           ;mcc_generated_files/oledC_example.c: 91:     params.bitmap.bit_array = (uint32_t *)&log
      +                          o[0];
  2840  010C4E  0EA1               	movlw	low _logo
  2841  010C50  6E48               	movwf	(oledC_example_setup@params+6)^(0+1280),c
  2842  010C52  0EFF               	movlw	high _logo
  2843  010C54  6E49               	movwf	(oledC_example_setup@params+7)^(0+1280),c
  2844  010C56                     
  2845                           ;mcc_generated_files/oledC_example.c: 92:     params.bitmap.array_length = 23;
  2846  010C56  0E17               	movlw	23
  2847  010C58  6E4A               	movwf	(oledC_example_setup@params+8)^(0+1280),c
  2848  010C5A                     
  2849                           ;mcc_generated_files/oledC_example.c: 93:     oledC_addShape(0,OLED_SHAPE_BITMAP, &param
      +                          s);
  2850  010C5A  0E07               	movlw	7
  2851  010C5C  6E08               	movwf	oledC_addShape@shape_type^(0+1280),c
  2852  010C5E  0E42               	movlw	low oledC_example_setup@params
  2853  010C60  6E09               	movwf	oledC_addShape@params^(0+1280),c
  2854  010C62  0E05               	movlw	high oledC_example_setup@params
  2855  010C64  6E0A               	movwf	(oledC_addShape@params+1)^(0+1280),c
  2856  010C66  0E00               	movlw	0
  2857  010C68  ECD4  F086         	call	_oledC_addShape
  2858  010C6C                     
  2859                           ;mcc_generated_files/oledC_example.c: 95:     params.circle.radius = 10;
  2860  010C6C  0E0A               	movlw	10
  2861  010C6E  6E46               	movwf	(oledC_example_setup@params+4)^(0+1280),c
  2862  010C70                     
  2863                           ;mcc_generated_files/oledC_example.c: 96:     params.circle.xc = 10;
  2864  010C70  0E0A               	movlw	10
  2865  010C72  6E44               	movwf	(oledC_example_setup@params+2)^(0+1280),c
  2866  010C74                     
  2867                           ;mcc_generated_files/oledC_example.c: 97:     params.circle.yc = 10;
  2868  010C74  0E0A               	movlw	10
  2869  010C76  6E45               	movwf	(oledC_example_setup@params+3)^(0+1280),c
  2870  010C78                     
  2871                           ;mcc_generated_files/oledC_example.c: 98:     oledC_addShape(1,OLED_SHAPE_CIRCLE, &param
      +                          s);
  2872  010C78  0E00               	movlw	0
  2873  010C7A  6E08               	movwf	oledC_addShape@shape_type^(0+1280),c
  2874  010C7C  0E42               	movlw	low oledC_example_setup@params
  2875  010C7E  6E09               	movwf	oledC_addShape@params^(0+1280),c
  2876  010C80  0E05               	movlw	high oledC_example_setup@params
  2877  010C82  6E0A               	movwf	(oledC_addShape@params+1)^(0+1280),c
  2878  010C84  0E01               	movlw	1
  2879  010C86  ECD4  F086         	call	_oledC_addShape
  2880  010C8A  0E00               	movlw	0
  2881  010C8C  6E43               	movwf	(oledC_example_setup@params+1)^(0+1280),c
  2882  010C8E  0E1F               	movlw	31
  2883  010C90  6E42               	movwf	oledC_example_setup@params^(0+1280),c
  2884  010C92                     
  2885                           ;mcc_generated_files/oledC_example.c: 101:     params.circle.yc = 85;
  2886  010C92  0E55               	movlw	85
  2887  010C94  6E45               	movwf	(oledC_example_setup@params+3)^(0+1280),c
  2888  010C96                     
  2889                           ;mcc_generated_files/oledC_example.c: 102:     oledC_addShape(2,OLED_SHAPE_CIRCLE, &para
      +                          ms);
  2890  010C96  0E00               	movlw	0
  2891  010C98  6E08               	movwf	oledC_addShape@shape_type^(0+1280),c
  2892  010C9A  0E42               	movlw	low oledC_example_setup@params
  2893  010C9C  6E09               	movwf	oledC_addShape@params^(0+1280),c
  2894  010C9E  0E05               	movlw	high oledC_example_setup@params
  2895  010CA0  6E0A               	movwf	(oledC_addShape@params+1)^(0+1280),c
  2896  010CA2  0E02               	movlw	2
  2897  010CA4  ECD4  F086         	call	_oledC_addShape
  2898  010CA8  0EFF               	movlw	255
  2899  010CAA  6E43               	movwf	(oledC_example_setup@params+1)^(0+1280),c
  2900  010CAC  0EE0               	movlw	224
  2901  010CAE  6E42               	movwf	oledC_example_setup@params^(0+1280),c
  2902  010CB0                     
  2903                           ;mcc_generated_files/oledC_example.c: 105:     params.circle.xc = 85;
  2904  010CB0  0E55               	movlw	85
  2905  010CB2  6E44               	movwf	(oledC_example_setup@params+2)^(0+1280),c
  2906  010CB4                     
  2907                           ;mcc_generated_files/oledC_example.c: 106:     oledC_addShape(3,OLED_SHAPE_CIRCLE, &para
      +                          ms);
  2908  010CB4  0E00               	movlw	0
  2909  010CB6  6E08               	movwf	oledC_addShape@shape_type^(0+1280),c
  2910  010CB8  0E42               	movlw	low oledC_example_setup@params
  2911  010CBA  6E09               	movwf	oledC_addShape@params^(0+1280),c
  2912  010CBC  0E05               	movlw	high oledC_example_setup@params
  2913  010CBE  6E0A               	movwf	(oledC_addShape@params+1)^(0+1280),c
  2914  010CC0  0E03               	movlw	3
  2915  010CC2  ECD4  F086         	call	_oledC_addShape
  2916  010CC6  0E04               	movlw	4
  2917  010CC8  6E43               	movwf	(oledC_example_setup@params+1)^(0+1280),c
  2918  010CCA  0E00               	movlw	0
  2919  010CCC  6E42               	movwf	oledC_example_setup@params^(0+1280),c
  2920  010CCE                     
  2921                           ;mcc_generated_files/oledC_example.c: 109:     params.circle.yc = 10;
  2922  010CCE  0E0A               	movlw	10
  2923  010CD0  6E45               	movwf	(oledC_example_setup@params+3)^(0+1280),c
  2924  010CD2                     
  2925                           ;mcc_generated_files/oledC_example.c: 110:     oledC_addShape(4,OLED_SHAPE_CIRCLE, &para
      +                          ms);
  2926  010CD2  0E00               	movlw	0
  2927  010CD4  6E08               	movwf	oledC_addShape@shape_type^(0+1280),c
  2928  010CD6  0E42               	movlw	low oledC_example_setup@params
  2929  010CD8  6E09               	movwf	oledC_addShape@params^(0+1280),c
  2930  010CDA  0E05               	movlw	high oledC_example_setup@params
  2931  010CDC  6E0A               	movwf	(oledC_addShape@params+1)^(0+1280),c
  2932  010CDE  0E04               	movlw	4
  2933  010CE0  ECD4  F086         	call	_oledC_addShape
  2934  010CE4                     
  2935                           ;mcc_generated_files/oledC_example.c: 113:     oledC_redrawAll();
  2936  010CE4  EC77  F08C         	call	_oledC_redrawAll	;wreg free
  2937  010CE8                     
  2938                           ;mcc_generated_files/oledC_example.c: 114:     exampleInitialized = 1;
  2939  010CE8  0E01               	movlw	1
  2940  010CEA  6E50               	movwf	_exampleInitialized^(0+1280),c
  2941  010CEC  0012               	return		;funcret
  2942  010CEE                     __end_of_oledC_example_setup:
  2943                           	callstack 0
  2944                           
  2945 ;; *************** function _oledC_setBackground *****************
  2946 ;; Defined at:
  2947 ;;		line 75 in file "mcc_generated_files/oledC_example.c"
  2948 ;; Parameters:    Size  Location     Type
  2949 ;;  color           2   21[COMRAM] unsigned short 
  2950 ;; Auto vars:     Size  Location     Type
  2951 ;;		None
  2952 ;; Return value:  Size  Location     Type
  2953 ;;                  1    wreg      void 
  2954 ;; Registers used:
  2955 ;;		wreg, fsr2l, fsr2h, status,2, status,0, pclath, tosl, tblptrl, tblptrh, tblptru, prodl, prodh, cstack
  2956 ;; Tracked objects:
  2957 ;;		On entry : 0/0
  2958 ;;		On exit  : 0/0
  2959 ;;		Unchanged: 0/0
  2960 ;; Data sizes:     COMRAM   BANK5   BANK6   BANK7   BANK8   BANK9  BANK10  BANK11  BANK12  BANK13  BANK14  BANK15  BANK1
      +6  BANK17  BANK18  BANK19  BANK20  BANK21  BANK22  BANK23  BANK24  BANK25  BANK26  BANK27  BANK28  BANK29  BANK30  BANK3
      +1  BANK32  BANK33  BANK34  BANK35  BANK36  BANK37
  2961 ;;      Params:         2       0       0       0       0       0       0       0       0       0       0       0       
      +0       0       0       0       0       0       0       0       0       0       0       0       0       0       0       
      +0       0       0       0       0       0       0
  2962 ;;      Locals:         0       0       0       0       0       0       0       0       0       0       0       0       
      +0       0       0       0       0       0       0       0       0       0       0       0       0       0       0       
      +0       0       0       0       0       0       0
  2963 ;;      Temps:          0       0       0       0       0       0       0       0       0       0       0       0       
      +0       0       0       0       0       0       0       0       0       0       0       0       0       0       0       
      +0       0       0       0       0       0       0
  2964 ;;      Totals:         2       0       0       0       0       0       0       0       0       0       0       0       
      +0       0       0       0       0       0       0       0       0       0       0       0       0       0       0       
      +0       0       0       0       0       0       0
  2965 ;;Total ram usage:        2 bytes
  2966 ;; Hardware stack levels used: 1
  2967 ;; Hardware stack levels required when called: 6
  2968 ;; This function calls:
  2969 ;;		_oledC_clearScreen
  2970 ;; This function is called by:
  2971 ;;		_oledC_example_setup
  2972 ;; This function uses a non-reentrant model
  2973 ;;
  2974                           
  2975                           	psect	text10
  2976  0118D4                     __ptext10:
  2977                           	callstack 0
  2978  0118D4                     _oledC_setBackground:
  2979                           	callstack 118
  2980  0118D4                     
  2981                           ;mcc_generated_files/oledC_example.c: 75: static void oledC_setBackground(uint16_t color
      +                          );mcc_generated_files/oledC_example.c: 76: {;mcc_generated_files/oledC_example.c: 77:   
      +                            background_color = color;
  2982  0118D4  C516  F54D         	movff	oledC_setBackground@color,_background_color
  2983  0118D8  C517  F54E         	movff	oledC_setBackground@color+1,_background_color+1
  2984  0118DC                     
  2985                           ;mcc_generated_files/oledC_example.c: 78:     oledC_clearScreen();
  2986  0118DC  EC4B  F08A         	call	_oledC_clearScreen	;wreg free
  2987  0118E0  0012               	return		;funcret
  2988  0118E2                     __end_of_oledC_setBackground:
  2989                           	callstack 0
  2990                           
  2991 ;; *************** function _oledC_clearScreen *****************
  2992 ;; Defined at:
  2993 ;;		line 60 in file "mcc_generated_files/oledC_example.c"
  2994 ;; Parameters:    Size  Location     Type
  2995 ;;		None
  2996 ;; Auto vars:     Size  Location     Type
  2997 ;;  y               1   20[COMRAM] unsigned char 
  2998 ;;  x               1   19[COMRAM] unsigned char 
  2999 ;; Return value:  Size  Location     Type
  3000 ;;                  1    wreg      void 
  3001 ;; Registers used:
  3002 ;;		wreg, fsr2l, fsr2h, status,2, status,0, pclath, tosl, tblptrl, tblptrh, tblptru, prodl, prodh, cstack
  3003 ;; Tracked objects:
  3004 ;;		On entry : 0/0
  3005 ;;		On exit  : 0/0
  3006 ;;		Unchanged: 0/0
  3007 ;; Data sizes:     COMRAM   BANK5   BANK6   BANK7   BANK8   BANK9  BANK10  BANK11  BANK12  BANK13  BANK14  BANK15  BANK1
      +6  BANK17  BANK18  BANK19  BANK20  BANK21  BANK22  BANK23  BANK24  BANK25  BANK26  BANK27  BANK28  BANK29  BANK30  BANK3
      +1  BANK32  BANK33  BANK34  BANK35  BANK36  BANK37
  3008 ;;      Params:         0       0       0       0       0       0       0       0       0       0       0       0       
      +0       0       0       0       0       0       0       0       0       0       0       0       0       0       0       
      +0       0       0       0       0       0       0
  3009 ;;      Locals:         2       0       0       0       0       0       0       0       0       0       0       0       
      +0       0       0       0       0       0       0       0       0       0       0       0       0       0       0       
      +0       0       0       0       0       0       0
  3010 ;;      Temps:          0       0       0       0       0       0       0       0       0       0       0       0       
      +0       0       0       0       0       0       0       0       0       0       0       0       0       0       0       
      +0       0       0       0       0       0       0
  3011 ;;      Totals:         2       0       0       0       0       0       0       0       0       0       0       0       
      +0       0       0       0       0       0       0       0       0       0       0       0       0       0       0       
      +0       0       0       0       0       0       0
  3012 ;;Total ram usage:        2 bytes
  3013 ;; Hardware stack levels used: 1
  3014 ;; Hardware stack levels required when called: 5
  3015 ;; This function calls:
  3016 ;;		_oledC_sendColorInt
  3017 ;;		_oledC_setColumnAddressBounds
  3018 ;;		_oledC_setRowAddressBounds
  3019 ;; This function is called by:
  3020 ;;		_oledC_setBackground
  3021 ;; This function uses a non-reentrant model
  3022 ;;
  3023                           
  3024                           	psect	text11
  3025  011496                     __ptext11:
  3026                           	callstack 0
  3027  011496                     _oledC_clearScreen:
  3028                           	callstack 118
  3029  011496                     
  3030                           ;mcc_generated_files/oledC_example.c: 62:     uint8_t x;;mcc_generated_files/oledC_examp
      +                          le.c: 63:     uint8_t y;;mcc_generated_files/oledC_example.c: 64:     oledC_setColumnAdd
      +                          ressBounds(0,96);
  3031  011496  0E60               	movlw	96
  3032  011498  6E0C               	movwf	oledC_setColumnAddressBounds@max^(0+1280),c
  3033  01149A  0E00               	movlw	0
  3034  01149C  EC85  F088         	call	_oledC_setColumnAddressBounds
  3035                           
  3036                           ;mcc_generated_files/oledC_example.c: 65:     oledC_setRowAddressBounds(0,96);
  3037  0114A0  0E60               	movlw	96
  3038  0114A2  6E0C               	movwf	oledC_setRowAddressBounds@max^(0+1280),c
  3039  0114A4  0E00               	movlw	0
  3040  0114A6  EC90  F089         	call	_oledC_setRowAddressBounds
  3041  0114AA                     
  3042                           ;mcc_generated_files/oledC_example.c: 66:     for(x = 0; x < 96; x++)
  3043  0114AA  0E00               	movlw	0
  3044  0114AC  6E14               	movwf	oledC_clearScreen@x^(0+1280),c
  3045  0114AE                     l3007:
  3046                           
  3047                           ;mcc_generated_files/oledC_example.c: 67:     {;mcc_generated_files/oledC_example.c: 68:
      +                                   for(y = 0; y < 96; y++)
  3048  0114AE  0E00               	movlw	0
  3049  0114B0  6E15               	movwf	oledC_clearScreen@y^(0+1280),c
  3050  0114B2                     l3013:
  3051                           
  3052                           ;mcc_generated_files/oledC_example.c: 69:         {;mcc_generated_files/oledC_example.c:
      +                           70:             oledC_sendColorInt(background_color);
  3053  0114B2  C54D  F50C         	movff	_background_color,oledC_sendColorInt@raw
  3054  0114B6  C54E  F50D         	movff	_background_color+1,oledC_sendColorInt@raw+1
  3055  0114BA  EC9D  F08B         	call	_oledC_sendColorInt	;wreg free
  3056  0114BE                     
  3057                           ;mcc_generated_files/oledC_example.c: 71:         }
  3058  0114BE  2A15               	incf	oledC_clearScreen@y^(0+1280),f,c
  3059  0114C0  0E5F               	movlw	95
  3060  0114C2  6415               	cpfsgt	oledC_clearScreen@y^(0+1280),c
  3061  0114C4  EF66  F08A         	goto	u1701
  3062  0114C8  EF68  F08A         	goto	u1700
  3063  0114CC                     u1701:
  3064  0114CC  EF59  F08A         	goto	l3013
  3065  0114D0                     u1700:
  3066  0114D0                     
  3067                           ;mcc_generated_files/oledC_example.c: 72:     }
  3068  0114D0  2A14               	incf	oledC_clearScreen@x^(0+1280),f,c
  3069  0114D2  0E5F               	movlw	95
  3070  0114D4  6414               	cpfsgt	oledC_clearScreen@x^(0+1280),c
  3071  0114D6  EF6F  F08A         	goto	u1711
  3072  0114DA  EF71  F08A         	goto	u1710
  3073  0114DE                     u1711:
  3074  0114DE  EF57  F08A         	goto	l3007
  3075  0114E2                     u1710:
  3076  0114E2  0012               	return		;funcret
  3077  0114E4                     __end_of_oledC_clearScreen:
  3078                           	callstack 0
  3079                           
  3080 ;; *************** function _oledC_redrawAll *****************
  3081 ;; Defined at:
  3082 ;;		line 125 in file "mcc_generated_files/oledC_shapeHandler.c"
  3083 ;; Parameters:    Size  Location     Type
  3084 ;;		None
  3085 ;; Auto vars:     Size  Location     Type
  3086 ;;		None
  3087 ;; Return value:  Size  Location     Type
  3088 ;;                  1    wreg      void 
  3089 ;; Registers used:
  3090 ;;		wreg, fsr2l, fsr2h, status,2, status,0, pclath, tosl, tblptrl, tblptrh, tblptru, prodl, prodh, cstack
  3091 ;; Tracked objects:
  3092 ;;		On entry : 0/0
  3093 ;;		On exit  : 0/0
  3094 ;;		Unchanged: 0/0
  3095 ;; Data sizes:     COMRAM   BANK5   BANK6   BANK7   BANK8   BANK9  BANK10  BANK11  BANK12  BANK13  BANK14  BANK15  BANK1
      +6  BANK17  BANK18  BANK19  BANK20  BANK21  BANK22  BANK23  BANK24  BANK25  BANK26  BANK27  BANK28  BANK29  BANK30  BANK3
      +1  BANK32  BANK33  BANK34  BANK35  BANK36  BANK37
  3096 ;;      Params:         0       0       0       0       0       0       0       0       0       0       0       0       
      +0       0       0       0       0       0       0       0       0       0       0       0       0       0       0       
      +0       0       0       0       0       0       0
  3097 ;;      Locals:         0       0       0       0       0       0       0       0       0       0       0       0       
      +0       0       0       0       0       0       0       0       0       0       0       0       0       0       0       
      +0       0       0       0       0       0       0
  3098 ;;      Temps:          0       0       0       0       0       0       0       0       0       0       0       0       
      +0       0       0       0       0       0       0       0       0       0       0       0       0       0       0       
      +0       0       0       0       0       0       0
  3099 ;;      Totals:         0       0       0       0       0       0       0       0       0       0       0       0       
      +0       0       0       0       0       0       0       0       0       0       0       0       0       0       0       
      +0       0       0       0       0       0       0
  3100 ;;Total ram usage:        0 bytes
  3101 ;; Hardware stack levels used: 1
  3102 ;; Hardware stack levels required when called: 10
  3103 ;; This function calls:
  3104 ;;		_oledC_redrawSome
  3105 ;; This function is called by:
  3106 ;;		_oledC_example_setup
  3107 ;; This function uses a non-reentrant model
  3108 ;;
  3109                           
  3110                           	psect	text12
  3111  0118EE                     __ptext12:
  3112                           	callstack 0
  3113  0118EE                     _oledC_redrawAll:
  3114                           	callstack 114
  3115  0118EE                     
  3116                           ;mcc_generated_files/oledC_shapeHandler.c: 127:     oledC_redrawSome(0,32);
  3117  0118EE  0E20               	movlw	32
  3118  0118F0  6E3D               	movwf	oledC_redrawSome@endInd^(0+1280),c
  3119  0118F2  0E00               	movlw	0
  3120  0118F4  EC27  F087         	call	_oledC_redrawSome
  3121  0118F8  0012               	return		;funcret
  3122  0118FA                     __end_of_oledC_redrawAll:
  3123                           	callstack 0
  3124                           
  3125 ;; *************** function _oledC_redrawSome *****************
  3126 ;; Defined at:
  3127 ;;		line 91 in file "mcc_generated_files/oledC_shapeHandler.c"
  3128 ;; Parameters:    Size  Location     Type
  3129 ;;  startInd        1    wreg     unsigned char 
  3130 ;;  endInd          1   60[COMRAM] unsigned char 
  3131 ;; Auto vars:     Size  Location     Type
  3132 ;;  startInd        1   61[COMRAM] unsigned char 
  3133 ;;  i               1   64[COMRAM] unsigned char 
  3134 ;; Return value:  Size  Location     Type
  3135 ;;                  1    wreg      void 
  3136 ;; Registers used:
  3137 ;;		wreg, fsr2l, fsr2h, status,2, status,0, pclath, tosl, tblptrl, tblptrh, tblptru, prodl, prodh, cstack
  3138 ;; Tracked objects:
  3139 ;;		On entry : 0/0
  3140 ;;		On exit  : 0/0
  3141 ;;		Unchanged: 0/0
  3142 ;; Data sizes:     COMRAM   BANK5   BANK6   BANK7   BANK8   BANK9  BANK10  BANK11  BANK12  BANK13  BANK14  BANK15  BANK1
      +6  BANK17  BANK18  BANK19  BANK20  BANK21  BANK22  BANK23  BANK24  BANK25  BANK26  BANK27  BANK28  BANK29  BANK30  BANK3
      +1  BANK32  BANK33  BANK34  BANK35  BANK36  BANK37
  3143 ;;      Params:         1       0       0       0       0       0       0       0       0       0       0       0       
      +0       0       0       0       0       0       0       0       0       0       0       0       0       0       0       
      +0       0       0       0       0       0       0
  3144 ;;      Locals:         4       0       0       0       0       0       0       0       0       0       0       0       
      +0       0       0       0       0       0       0       0       0       0       0       0       0       0       0       
      +0       0       0       0       0       0       0
  3145 ;;      Temps:          0       0       0       0       0       0       0       0       0       0       0       0       
      +0       0       0       0       0       0       0       0       0       0       0       0       0       0       0       
      +0       0       0       0       0       0       0
  3146 ;;      Totals:         5       0       0       0       0       0       0       0       0       0       0       0       
      +0       0       0       0       0       0       0       0       0       0       0       0       0       0       0       
      +0       0       0       0       0       0       0
  3147 ;;Total ram usage:        5 bytes
  3148 ;; Hardware stack levels used: 1
  3149 ;; Hardware stack levels required when called: 9
  3150 ;; This function calls:
  3151 ;;		_drawBitmap
  3152 ;;		_drawCharacter
  3153 ;;		_drawCircle
  3154 ;;		_drawLine
  3155 ;;		_drawPoint
  3156 ;;		_drawRectangle
  3157 ;;		_drawRing
  3158 ;;		_drawString
  3159 ;;		_dummyshape
  3160 ;; This function is called by:
  3161 ;;		_oledC_redrawAll
  3162 ;;		_oledC_redrawTo
  3163 ;;		_oledC_redrawFrom
  3164 ;; This function uses a non-reentrant model
  3165 ;;
  3166                           
  3167                           	psect	text13
  3168  010E4E                     __ptext13:
  3169                           	callstack 0
  3170  010E4E                     _oledC_redrawSome:
  3171                           	callstack 114
  3172                           
  3173                           ;incstack = 0
  3174                           ;oledC_redrawSome@startInd stored from wreg
  3175  010E4E  6E3E               	movwf	oledC_redrawSome@startInd^(0+1280),c
  3176  010E50                     
  3177                           ;mcc_generated_files/oledC_shapeHandler.c: 91: void oledC_redrawSome(uint8_t startInd, u
      +                          int8_t endInd);mcc_generated_files/oledC_shapeHandler.c: 92: {;mcc_generated_files/oledC
      +                          _shapeHandler.c: 93:     uint8_t i;;mcc_generated_files/oledC_shapeHandler.c: 94:     en
      +                          dInd = endInd > 32 ? 32 : endInd;
  3178  010E50  0E21               	movlw	33
  3179  010E52  603D               	cpfslt	oledC_redrawSome@endInd^(0+1280),c
  3180  010E54  EF2E  F087         	goto	u1721
  3181  010E58  EF30  F087         	goto	u1720
  3182  010E5C                     u1721:
  3183  010E5C  EF35  F087         	goto	l3027
  3184  010E60                     u1720:
  3185  010E60  C53D  F53F         	movff	oledC_redrawSome@endInd,_oledC_redrawSome$1908
  3186  010E64  6A40               	clrf	(_oledC_redrawSome$1908+1)^(0+1280),c
  3187  010E66  EF39  F087         	goto	l3029
  3188  010E6A                     l3027:
  3189  010E6A  0E00               	movlw	0
  3190  010E6C  6E40               	movwf	(_oledC_redrawSome$1908+1)^(0+1280),c
  3191  010E6E  0E20               	movlw	32
  3192  010E70  6E3F               	movwf	_oledC_redrawSome$1908^(0+1280),c
  3193  010E72                     l3029:
  3194  010E72  C53F  F53D         	movff	_oledC_redrawSome$1908,oledC_redrawSome@endInd
  3195  010E76                     
  3196                           ;mcc_generated_files/oledC_shapeHandler.c: 95:     for(i = startInd; i < endInd; i++)
  3197  010E76  C53E  F541         	movff	oledC_redrawSome@startInd,oledC_redrawSome@i
  3198  010E7A  EF6D  F087         	goto	l3039
  3199  010E7E                     l3033:
  3200                           
  3201                           ;mcc_generated_files/oledC_shapeHandler.c: 96:     {;mcc_generated_files/oledC_shapeHand
      +                          ler.c: 97:         if(allParsedShapes[i].active)
  3202  010E7E  5041               	movf	oledC_redrawSome@i^(0+1280),w,c
  3203  010E80  0D0E               	mullw	14
  3204  010E82  0E4D               	movlw	low (_allParsedShapes+13)
  3205  010E84  24F3               	addwf	243,w,c
  3206  010E86  6ED9               	movwf	fsr2l,c
  3207  010E88  0E24               	movlw	high (_allParsedShapes+13)
  3208  010E8A  20F4               	addwfc	prodh,w,c
  3209  010E8C  6EDA               	movwf	fsr2h,c
  3210  010E8E  50DF               	movf	indf2,w,c
  3211  010E90  B4D8               	btfsc	status,2,c
  3212  010E92  EF4D  F087         	goto	u1731
  3213  010E96  EF4F  F087         	goto	u1730
  3214  010E9A                     u1731:
  3215  010E9A  EF6C  F087         	goto	l3037
  3216  010E9E                     u1730:
  3217  010E9E                     
  3218                           ;mcc_generated_files/oledC_shapeHandler.c: 98:         {;mcc_generated_files/oledC_shape
      +                          Handler.c: 99:             allParsedShapes[i].draw(&allParsedShapes[i]);
  3219  010E9E  5041               	movf	oledC_redrawSome@i^(0+1280),w,c
  3220  010EA0  0D0E               	mullw	14
  3221  010EA2  0E40               	movlw	low _allParsedShapes
  3222  010EA4  24F3               	addwf	243,w,c
  3223  010EA6  6E3B               	movwf	dummyshape@shape^(0+1280),c
  3224  010EA8  0E24               	movlw	high _allParsedShapes
  3225  010EAA  20F4               	addwfc	prodh,w,c
  3226  010EAC  6E3C               	movwf	(dummyshape@shape+1)^(0+1280),c
  3227  010EAE  5041               	movf	oledC_redrawSome@i^(0+1280),w,c
  3228  010EB0  0D0E               	mullw	14
  3229  010EB2  0E41               	movlw	low (_allParsedShapes+1)
  3230  010EB4  24F3               	addwf	243,w,c
  3231  010EB6  6ED9               	movwf	fsr2l,c
  3232  010EB8  0E24               	movlw	high (_allParsedShapes+1)
  3233  010EBA  20F4               	addwfc	prodh,w,c
  3234  010EBC  6EDA               	movwf	fsr2h,c
  3235  010EBE  D802               	call	u1748
  3236  010EC0  EF6C  F087         	goto	u1749
  3237  010EC4                     u1748:
  3238  010EC4  0005               	push	
  3239  010EC6  6EFA               	movwf	pclath,c
  3240  010EC8  50DE               	movf	postinc2,w,c
  3241  010ECA  6EFD               	movwf	tosl,c
  3242  010ECC  50DE               	movf	postinc2,w,c
  3243  010ECE  6EFE               	movwf	tosh,c
  3244  010ED0  50DE               	movf	postinc2,w,c
  3245  010ED2  6EFF               	movwf	tosu,c
  3246  010ED4  50FA               	movf	pclath,w,c
  3247  010ED6  0012               	return		;indir
  3248  010ED8                     u1749:
  3249  010ED8                     l3037:
  3250                           
  3251                           ;mcc_generated_files/oledC_shapeHandler.c: 101:     }
  3252  010ED8  2A41               	incf	oledC_redrawSome@i^(0+1280),f,c
  3253  010EDA                     l3039:
  3254  010EDA  503D               	movf	oledC_redrawSome@endInd^(0+1280),w,c
  3255  010EDC  5C41               	subwf	oledC_redrawSome@i^(0+1280),w,c
  3256  010EDE  A0D8               	btfss	status,0,c
  3257  010EE0  EF74  F087         	goto	u1751
  3258  010EE4  EF76  F087         	goto	u1750
  3259  010EE8                     u1751:
  3260  010EE8  EF3F  F087         	goto	l3033
  3261  010EEC                     u1750:
  3262  010EEC  0012               	return		;funcret
  3263  010EEE                     __end_of_oledC_redrawSome:
  3264                           	callstack 0
  3265                           
  3266 ;; *************** function _oledC_addShape *****************
  3267 ;; Defined at:
  3268 ;;		line 62 in file "mcc_generated_files/oledC_shapeHandler.c"
  3269 ;; Parameters:    Size  Location     Type
  3270 ;;  drawIndex       1    wreg     unsigned char 
  3271 ;;  shape_type      1    7[COMRAM] enum E36
  3272 ;;  params          2    8[COMRAM] PTR struct shape_params_
  3273 ;;		 -> oledC_example_setup@params(9), 
  3274 ;; Auto vars:     Size  Location     Type
  3275 ;;  drawIndex       1   14[COMRAM] unsigned char 
  3276 ;;  newShape        2   10[COMRAM] PTR struct shape
  3277 ;;		 -> allParsedShapes(448), 
  3278 ;;  i               1   15[COMRAM] unsigned char 
  3279 ;; Return value:  Size  Location     Type
  3280 ;;                  1    wreg      void 
  3281 ;; Registers used:
  3282 ;;		wreg, fsr1l, fsr1h, fsr2l, fsr2h, status,2, status,0, prodl, prodh, cstack
  3283 ;; Tracked objects:
  3284 ;;		On entry : 0/0
  3285 ;;		On exit  : 0/0
  3286 ;;		Unchanged: 0/0
  3287 ;; Data sizes:     COMRAM   BANK5   BANK6   BANK7   BANK8   BANK9  BANK10  BANK11  BANK12  BANK13  BANK14  BANK15  BANK1
      +6  BANK17  BANK18  BANK19  BANK20  BANK21  BANK22  BANK23  BANK24  BANK25  BANK26  BANK27  BANK28  BANK29  BANK30  BANK3
      +1  BANK32  BANK33  BANK34  BANK35  BANK36  BANK37
  3288 ;;      Params:         3       0       0       0       0       0       0       0       0       0       0       0       
      +0       0       0       0       0       0       0       0       0       0       0       0       0       0       0       
      +0       0       0       0       0       0       0
  3289 ;;      Locals:         6       0       0       0       0       0       0       0       0       0       0       0       
      +0       0       0       0       0       0       0       0       0       0       0       0       0       0       0       
      +0       0       0       0       0       0       0
  3290 ;;      Temps:          0       0       0       0       0       0       0       0       0       0       0       0       
      +0       0       0       0       0       0       0       0       0       0       0       0       0       0       0       
      +0       0       0       0       0       0       0
  3291 ;;      Totals:         9       0       0       0       0       0       0       0       0       0       0       0       
      +0       0       0       0       0       0       0       0       0       0       0       0       0       0       0       
      +0       0       0       0       0       0       0
  3292 ;;Total ram usage:        9 bytes
  3293 ;; Hardware stack levels used: 1
  3294 ;; Hardware stack levels required when called: 1
  3295 ;; This function calls:
  3296 ;;		_oledC_createShape
  3297 ;; This function is called by:
  3298 ;;		_oledC_example_setup
  3299 ;; This function uses a non-reentrant model
  3300 ;;
  3301                           
  3302                           	psect	text14
  3303  010DA8                     __ptext14:
  3304                           	callstack 0
  3305  010DA8                     _oledC_addShape:
  3306                           	callstack 123
  3307                           
  3308                           ;incstack = 0
  3309                           ;oledC_addShape@drawIndex stored from wreg
  3310  010DA8  6E0F               	movwf	oledC_addShape@drawIndex^(0+1280),c
  3311  010DAA                     
  3312                           ;mcc_generated_files/oledC_shapeHandler.c: 62: void oledC_addShape(uint8_t drawIndex, en
      +                          um OLEDC_SHAPE shape_type, shape_params_t *params);mcc_generated_files/oledC_shapeHandle
      +                          r.c: 63: {;mcc_generated_files/oledC_shapeHandler.c: 64:     uint8_t i;;mcc_generated_fi
      +                          les/oledC_shapeHandler.c: 65:     shape_t *newShape;;mcc_generated_files/oledC_shapeHand
      +                          ler.c: 66:     drawIndex = drawIndex >= 32 ? (32 -1) : drawIndex;
  3313  010DAA  0E20               	movlw	32
  3314  010DAC  600F               	cpfslt	oledC_addShape@drawIndex^(0+1280),c
  3315  010DAE  EFDB  F086         	goto	u1761
  3316  010DB2  EFDD  F086         	goto	u1760
  3317  010DB6                     u1761:
  3318  010DB6  EFE2  F086         	goto	l3049
  3319  010DBA                     u1760:
  3320  010DBA  C50F  F50D         	movff	oledC_addShape@drawIndex,_oledC_addShape$1896
  3321  010DBE  6A0E               	clrf	(_oledC_addShape$1896+1)^(0+1280),c
  3322  010DC0  EFE6  F086         	goto	l3051
  3323  010DC4                     l3049:
  3324  010DC4  0E00               	movlw	0
  3325  010DC6  6E0E               	movwf	(_oledC_addShape$1896+1)^(0+1280),c
  3326  010DC8  0E1F               	movlw	31
  3327  010DCA  6E0D               	movwf	_oledC_addShape$1896^(0+1280),c
  3328  010DCC                     l3051:
  3329  010DCC  C50D  F50F         	movff	_oledC_addShape$1896,oledC_addShape@drawIndex
  3330                           
  3331                           ;mcc_generated_files/oledC_shapeHandler.c: 67:     for(i = (32 -1); i > drawIndex && i >
      +                           0; i--)
  3332  010DD0  0E1F               	movlw	31
  3333  010DD2  6E10               	movwf	oledC_addShape@i^(0+1280),c
  3334  010DD4  EF02  F087         	goto	l3057
  3335  010DD8                     l3053:
  3336                           
  3337                           ;mcc_generated_files/oledC_shapeHandler.c: 68:     {;mcc_generated_files/oledC_shapeHand
      +                          ler.c: 69:         allParsedShapes[i] = allParsedShapes[i-1];
  3338  010DD8  5010               	movf	oledC_addShape@i^(0+1280),w,c
  3339  010DDA  0D0E               	mullw	14
  3340  010DDC  0E32               	movlw	low (_allParsedShapes+65522)
  3341  010DDE  24F3               	addwf	243,w,c
  3342  010DE0  6ED9               	movwf	fsr2l,c
  3343  010DE2  0E24               	movlw	high (_allParsedShapes+65522)
  3344  010DE4  20F4               	addwfc	prodh,w,c
  3345  010DE6  6EDA               	movwf	fsr2h,c
  3346  010DE8  5010               	movf	oledC_addShape@i^(0+1280),w,c
  3347  010DEA  0D0E               	mullw	14
  3348  010DEC  0E40               	movlw	low _allParsedShapes
  3349  010DEE  24F3               	addwf	243,w,c
  3350  010DF0  6EE1               	movwf	fsr1l,c
  3351  010DF2  0E24               	movlw	high _allParsedShapes
  3352  010DF4  20F4               	addwfc	prodh,w,c
  3353  010DF6  6EE2               	movwf	fsr1h,c
  3354  010DF8  0E0D               	movlw	13
  3355  010DFA                     u1771:
  3356  010DFA  C4DB F4E3          	movff	plusw2,plusw1
  3357  010DFE  06E8               	decf	wreg,f,c
  3358  010E00  E2FC               	bc	u1771
  3359  010E02                     
  3360                           ;mcc_generated_files/oledC_shapeHandler.c: 70:     }
  3361  010E02  0610               	decf	oledC_addShape@i^(0+1280),f,c
  3362  010E04                     l3057:
  3363  010E04  5010               	movf	oledC_addShape@i^(0+1280),w,c
  3364  010E06  5C0F               	subwf	oledC_addShape@drawIndex^(0+1280),w,c
  3365  010E08  B0D8               	btfsc	status,0,c
  3366  010E0A  EF09  F087         	goto	u1781
  3367  010E0E  EF0B  F087         	goto	u1780
  3368  010E12                     u1781:
  3369  010E12  EF13  F087         	goto	l3061
  3370  010E16                     u1780:
  3371  010E16  5010               	movf	oledC_addShape@i^(0+1280),w,c
  3372  010E18  A4D8               	btfss	status,2,c
  3373  010E1A  EF11  F087         	goto	u1791
  3374  010E1E  EF13  F087         	goto	u1790
  3375  010E22                     u1791:
  3376  010E22  EFEC  F086         	goto	l3053
  3377  010E26                     u1790:
  3378  010E26                     l3061:
  3379                           
  3380                           ;mcc_generated_files/oledC_shapeHandler.c: 72:     newShape = &allParsedShapes[drawIndex
      +                          ];
  3381  010E26  500F               	movf	oledC_addShape@drawIndex^(0+1280),w,c
  3382  010E28  0D0E               	mullw	14
  3383  010E2A  0E40               	movlw	low _allParsedShapes
  3384  010E2C  24F3               	addwf	243,w,c
  3385  010E2E  6E0B               	movwf	oledC_addShape@newShape^(0+1280),c
  3386  010E30  0E24               	movlw	high _allParsedShapes
  3387  010E32  20F4               	addwfc	prodh,w,c
  3388  010E34  6E0C               	movwf	(oledC_addShape@newShape+1)^(0+1280),c
  3389  010E36                     
  3390                           ;mcc_generated_files/oledC_shapeHandler.c: 73:     oledC_createShape(shape_type, params,
      +                           newShape);
  3391  010E36  C509  F501         	movff	oledC_addShape@params,oledC_createShape@params
  3392  010E3A  C50A  F502         	movff	oledC_addShape@params+1,oledC_createShape@params+1
  3393  010E3E  C50B  F503         	movff	oledC_addShape@newShape,oledC_createShape@newShape
  3394  010E42  C50C  F504         	movff	oledC_addShape@newShape+1,oledC_createShape@newShape+1
  3395  010E46  5008               	movf	oledC_addShape@shape_type^(0+1280),w,c
  3396  010E48  EC00  F080         	call	_oledC_createShape
  3397  010E4C  0012               	return		;funcret
  3398  010E4E                     __end_of_oledC_addShape:
  3399                           	callstack 0
  3400                           
  3401 ;; *************** function _oledC_createShape *****************
  3402 ;; Defined at:
  3403 ;;		line 44 in file "mcc_generated_files/oledC_shapes.c"
  3404 ;; Parameters:    Size  Location     Type
  3405 ;;  shape_type      1    wreg     enum E36
  3406 ;;  params          2    0[COMRAM] PTR struct shape_params_
  3407 ;;		 -> oledC_example_setup@params(9), 
  3408 ;;  newShape        2    2[COMRAM] PTR struct shape
  3409 ;;		 -> allParsedShapes(448), 
  3410 ;; Auto vars:     Size  Location     Type
  3411 ;;  shape_type      1    6[COMRAM] enum E36
  3412 ;; Return value:  Size  Location     Type
  3413 ;;                  1    wreg      void 
  3414 ;; Registers used:
  3415 ;;		wreg, fsr1l, fsr1h, fsr2l, fsr2h, status,2, status,0
  3416 ;; Tracked objects:
  3417 ;;		On entry : 0/0
  3418 ;;		On exit  : 0/0
  3419 ;;		Unchanged: 0/0
  3420 ;; Data sizes:     COMRAM   BANK5   BANK6   BANK7   BANK8   BANK9  BANK10  BANK11  BANK12  BANK13  BANK14  BANK15  BANK1
      +6  BANK17  BANK18  BANK19  BANK20  BANK21  BANK22  BANK23  BANK24  BANK25  BANK26  BANK27  BANK28  BANK29  BANK30  BANK3
      +1  BANK32  BANK33  BANK34  BANK35  BANK36  BANK37
  3421 ;;      Params:         4       0       0       0       0       0       0       0       0       0       0       0       
      +0       0       0       0       0       0       0       0       0       0       0       0       0       0       0       
      +0       0       0       0       0       0       0
  3422 ;;      Locals:         1       0       0       0       0       0       0       0       0       0       0       0       
      +0       0       0       0       0       0       0       0       0       0       0       0       0       0       0       
      +0       0       0       0       0       0       0
  3423 ;;      Temps:          2       0       0       0       0       0       0       0       0       0       0       0       
      +0       0       0       0       0       0       0       0       0       0       0       0       0       0       0       
      +0       0       0       0       0       0       0
  3424 ;;      Totals:         7       0       0       0       0       0       0       0       0       0       0       0       
      +0       0       0       0       0       0       0       0       0       0       0       0       0       0       0       
      +0       0       0       0       0       0       0
  3425 ;;Total ram usage:        7 bytes
  3426 ;; Hardware stack levels used: 1
  3427 ;; This function calls:
  3428 ;;		Nothing
  3429 ;; This function is called by:
  3430 ;;		_oledC_addShape
  3431 ;; This function uses a non-reentrant model
  3432 ;;
  3433                           
  3434                           	psect	text15
  3435  010000                     __ptext15:
  3436                           	callstack 0
  3437  010000                     _oledC_createShape:
  3438                           	callstack 123
  3439                           
  3440                           ;incstack = 0
  3441                           ;oledC_createShape@shape_type stored from wreg
  3442  010000  6E07               	movwf	oledC_createShape@shape_type^(0+1280),c
  3443  010002                     
  3444                           ;mcc_generated_files/oledC_shapes.c: 44: void oledC_createShape(enum OLEDC_SHAPE shape_t
      +                          ype, shape_params_t *params, shape_t *newShape);mcc_generated_files/oledC_shapes.c: 45: 
      +                          {;mcc_generated_files/oledC_shapes.c: 46:     newShape->_type = shape_type;
  3445  010002  0061  F40C  F4D9   	movff	oledC_createShape@newShape,fsr2l
  3446  010008  0061  F410  F4DA   	movff	oledC_createShape@newShape+1,fsr2h
  3447  01000E  0061  F41C  F4DF   	movff	oledC_createShape@shape_type,indf2
  3448  010014                     
  3449                           ;mcc_generated_files/oledC_shapes.c: 47:     newShape->active = 1;
  3450  010014  EE20 F00D          	lfsr	2,13
  3451  010018  5003               	movf	oledC_createShape@newShape^(0+1280),w,c
  3452  01001A  26D9               	addwf	fsr2l,f,c
  3453  01001C  5004               	movf	(oledC_createShape@newShape+1)^(0+1280),w,c
  3454  01001E  22DA               	addwfc	fsr2h,f,c
  3455  010020  0E01               	movlw	1
  3456  010022  6EDF               	movwf	indf2,c
  3457  010024                     
  3458                           ;mcc_generated_files/oledC_shapes.c: 49:     newShape->params.point = params->point;
  3459  010024  0061  F404  F4D9   	movff	oledC_createShape@params,fsr2l
  3460  01002A  0061  F408  F4DA   	movff	oledC_createShape@params+1,fsr2h
  3461  010030  EE10 F004          	lfsr	1,4
  3462  010034  5003               	movf	oledC_createShape@newShape^(0+1280),w,c
  3463  010036  26E1               	addwf	fsr1l,f,c
  3464  010038  5004               	movf	(oledC_createShape@newShape+1)^(0+1280),w,c
  3465  01003A  22E2               	addwfc	fsr1h,f,c
  3466  01003C  C4DE F4E6          	movff	postinc2,postinc1
  3467  010040  C4DE F4E6          	movff	postinc2,postinc1
  3468  010044  C4DE F4E6          	movff	postinc2,postinc1
  3469  010048  C4DE F4E6          	movff	postinc2,postinc1
  3470                           
  3471                           ;mcc_generated_files/oledC_shapes.c: 50:     switch(shape_type)
  3472  01004C  EF0F  F081         	goto	l2993
  3473  010050                     l2961:
  3474                           
  3475                           ;mcc_generated_files/oledC_shapes.c: 53:             newShape->params.circle = params->c
      +                          ircle;
  3476  010050  0061  F404  F4D9   	movff	oledC_createShape@params,fsr2l
  3477  010056  0061  F408  F4DA   	movff	oledC_createShape@params+1,fsr2h
  3478  01005C  EE10 F004          	lfsr	1,4
  3479  010060  5003               	movf	oledC_createShape@newShape^(0+1280),w,c
  3480  010062  26E1               	addwf	fsr1l,f,c
  3481  010064  5004               	movf	(oledC_createShape@newShape+1)^(0+1280),w,c
  3482  010066  22E2               	addwfc	fsr1h,f,c
  3483  010068  0E04               	movlw	4
  3484  01006A                     u1631:
  3485  01006A  C4DB F4E3          	movff	plusw2,plusw1
  3486  01006E  06E8               	decf	wreg,f,c
  3487  010070  E2FC               	bc	u1631
  3488  010072                     
  3489                           ;mcc_generated_files/oledC_shapes.c: 54:             newShape->draw = drawCircle;
  3490  010072  EE20 F001          	lfsr	2,1
  3491  010076  5003               	movf	oledC_createShape@newShape^(0+1280),w,c
  3492  010078  26D9               	addwf	fsr2l,f,c
  3493  01007A  5004               	movf	(oledC_createShape@newShape+1)^(0+1280),w,c
  3494  01007C  22DA               	addwfc	fsr2h,f,c
  3495  01007E  0E7E               	movlw	low _drawCircle
  3496  010080  6EDE               	movwf	postinc2,c
  3497  010082  0E15               	movlw	high _drawCircle
  3498  010084  6EDE               	movwf	postinc2,c
  3499  010086  0E01               	movlw	low (_drawCircle shr (0+16))
  3500  010088  6EDE               	movwf	postinc2,c
  3501                           
  3502                           ;mcc_generated_files/oledC_shapes.c: 55:             break;
  3503  01008A  EF38  F081         	goto	l43
  3504  01008E                     l2965:
  3505                           
  3506                           ;mcc_generated_files/oledC_shapes.c: 57:             newShape->params.ring = params->rin
      +                          g;
  3507  01008E  0061  F404  F4D9   	movff	oledC_createShape@params,fsr2l
  3508  010094  0061  F408  F4DA   	movff	oledC_createShape@params+1,fsr2h
  3509  01009A  EE10 F004          	lfsr	1,4
  3510  01009E  5003               	movf	oledC_createShape@newShape^(0+1280),w,c
  3511  0100A0  26E1               	addwf	fsr1l,f,c
  3512  0100A2  5004               	movf	(oledC_createShape@newShape+1)^(0+1280),w,c
  3513  0100A4  22E2               	addwfc	fsr1h,f,c
  3514  0100A6  0E05               	movlw	5
  3515  0100A8                     u1641:
  3516  0100A8  C4DB F4E3          	movff	plusw2,plusw1
  3517  0100AC  06E8               	decf	wreg,f,c
  3518  0100AE  E2FC               	bc	u1641
  3519  0100B0                     
  3520                           ;mcc_generated_files/oledC_shapes.c: 58:             newShape->draw = drawRing;
  3521  0100B0  EE20 F001          	lfsr	2,1
  3522  0100B4  5003               	movf	oledC_createShape@newShape^(0+1280),w,c
  3523  0100B6  26D9               	addwf	fsr2l,f,c
  3524  0100B8  5004               	movf	(oledC_createShape@newShape+1)^(0+1280),w,c
  3525  0100BA  22DA               	addwfc	fsr2h,f,c
  3526  0100BC  0E3A               	movlw	low _drawRing
  3527  0100BE  6EDE               	movwf	postinc2,c
  3528  0100C0  0E14               	movlw	high _drawRing
  3529  0100C2  6EDE               	movwf	postinc2,c
  3530  0100C4  0E01               	movlw	low (_drawRing shr (0+16))
  3531  0100C6  6EDE               	movwf	postinc2,c
  3532                           
  3533                           ;mcc_generated_files/oledC_shapes.c: 59:             break;
  3534  0100C8  EF38  F081         	goto	l43
  3535  0100CC                     l2969:
  3536                           
  3537                           ;mcc_generated_files/oledC_shapes.c: 61:             newShape->params.rectangle = params
      +                          ->rectangle;
  3538  0100CC  0061  F404  F4D9   	movff	oledC_createShape@params,fsr2l
  3539  0100D2  0061  F408  F4DA   	movff	oledC_createShape@params+1,fsr2h
  3540  0100D8  EE10 F004          	lfsr	1,4
  3541  0100DC  5003               	movf	oledC_createShape@newShape^(0+1280),w,c
  3542  0100DE  26E1               	addwf	fsr1l,f,c
  3543  0100E0  5004               	movf	(oledC_createShape@newShape+1)^(0+1280),w,c
  3544  0100E2  22E2               	addwfc	fsr1h,f,c
  3545  0100E4  0E05               	movlw	5
  3546  0100E6                     u1651:
  3547  0100E6  C4DB F4E3          	movff	plusw2,plusw1
  3548  0100EA  06E8               	decf	wreg,f,c
  3549  0100EC  E2FC               	bc	u1651
  3550  0100EE                     
  3551                           ;mcc_generated_files/oledC_shapes.c: 62:             newShape->draw = drawRectangle;
  3552  0100EE  EE20 F001          	lfsr	2,1
  3553  0100F2  5003               	movf	oledC_createShape@newShape^(0+1280),w,c
  3554  0100F4  26D9               	addwf	fsr2l,f,c
  3555  0100F6  5004               	movf	(oledC_createShape@newShape+1)^(0+1280),w,c
  3556  0100F8  22DA               	addwfc	fsr2h,f,c
  3557  0100FA  0EDE               	movlw	low _drawRectangle
  3558  0100FC  6EDE               	movwf	postinc2,c
  3559  0100FE  0E13               	movlw	high _drawRectangle
  3560  010100  6EDE               	movwf	postinc2,c
  3561  010102  0E01               	movlw	low (_drawRectangle shr (0+16))
  3562  010104  6EDE               	movwf	postinc2,c
  3563                           
  3564                           ;mcc_generated_files/oledC_shapes.c: 63:             break;
  3565  010106  EF38  F081         	goto	l43
  3566  01010A                     l2973:
  3567                           
  3568                           ;mcc_generated_files/oledC_shapes.c: 65:             newShape->params.line = params->lin
      +                          e;
  3569  01010A  0061  F404  F4D9   	movff	oledC_createShape@params,fsr2l
  3570  010110  0061  F408  F4DA   	movff	oledC_createShape@params+1,fsr2h
  3571  010116  EE10 F004          	lfsr	1,4
  3572  01011A  5003               	movf	oledC_createShape@newShape^(0+1280),w,c
  3573  01011C  26E1               	addwf	fsr1l,f,c
  3574  01011E  5004               	movf	(oledC_createShape@newShape+1)^(0+1280),w,c
  3575  010120  22E2               	addwfc	fsr1h,f,c
  3576  010122  0E06               	movlw	6
  3577  010124                     u1661:
  3578  010124  C4DB F4E3          	movff	plusw2,plusw1
  3579  010128  06E8               	decf	wreg,f,c
  3580  01012A  E2FC               	bc	u1661
  3581  01012C                     
  3582                           ;mcc_generated_files/oledC_shapes.c: 66:             newShape->draw = drawLine;
  3583  01012C  EE20 F001          	lfsr	2,1
  3584  010130  5003               	movf	oledC_createShape@newShape^(0+1280),w,c
  3585  010132  26D9               	addwf	fsr2l,f,c
  3586  010134  5004               	movf	(oledC_createShape@newShape+1)^(0+1280),w,c
  3587  010136  22DA               	addwfc	fsr2h,f,c
  3588  010138  0EE4               	movlw	low _drawLine
  3589  01013A  6EDE               	movwf	postinc2,c
  3590  01013C  0E11               	movlw	high _drawLine
  3591  01013E  6EDE               	movwf	postinc2,c
  3592  010140  0E01               	movlw	low (_drawLine shr (0+16))
  3593  010142  6EDE               	movwf	postinc2,c
  3594                           
  3595                           ;mcc_generated_files/oledC_shapes.c: 67:             break;
  3596  010144  EF38  F081         	goto	l43
  3597  010148                     l2977:
  3598                           
  3599                           ;mcc_generated_files/oledC_shapes.c: 69:             newShape->params.character = params
      +                          ->character;
  3600  010148  0061  F404  F4D9   	movff	oledC_createShape@params,fsr2l
  3601  01014E  0061  F408  F4DA   	movff	oledC_createShape@params+1,fsr2h
  3602  010154  EE10 F004          	lfsr	1,4
  3603  010158  5003               	movf	oledC_createShape@newShape^(0+1280),w,c
  3604  01015A  26E1               	addwf	fsr1l,f,c
  3605  01015C  5004               	movf	(oledC_createShape@newShape+1)^(0+1280),w,c
  3606  01015E  22E2               	addwfc	fsr1h,f,c
  3607  010160  0E06               	movlw	6
  3608  010162                     u1671:
  3609  010162  C4DB F4E3          	movff	plusw2,plusw1
  3610  010166  06E8               	decf	wreg,f,c
  3611  010168  E2FC               	bc	u1671
  3612  01016A                     
  3613                           ;mcc_generated_files/oledC_shapes.c: 70:             newShape->draw = drawCharacter;
  3614  01016A  EE20 F001          	lfsr	2,1
  3615  01016E  5003               	movf	oledC_createShape@newShape^(0+1280),w,c
  3616  010170  26D9               	addwf	fsr2l,f,c
  3617  010172  5004               	movf	(oledC_createShape@newShape+1)^(0+1280),w,c
  3618  010174  22DA               	addwfc	fsr2h,f,c
  3619  010176  0E78               	movlw	low _drawCharacter
  3620  010178  6EDE               	movwf	postinc2,c
  3621  01017A  0E11               	movlw	high _drawCharacter
  3622  01017C  6EDE               	movwf	postinc2,c
  3623  01017E  0E01               	movlw	low (_drawCharacter shr (0+16))
  3624  010180  6EDE               	movwf	postinc2,c
  3625                           
  3626                           ;mcc_generated_files/oledC_shapes.c: 71:             break;
  3627  010182  EF38  F081         	goto	l43
  3628  010186                     l2981:
  3629                           
  3630                           ;mcc_generated_files/oledC_shapes.c: 73:             newShape->params.string = params->s
      +                          tring;
  3631  010186  0061  F404  F4D9   	movff	oledC_createShape@params,fsr2l
  3632  01018C  0061  F408  F4DA   	movff	oledC_createShape@params+1,fsr2h
  3633  010192  EE10 F004          	lfsr	1,4
  3634  010196  5003               	movf	oledC_createShape@newShape^(0+1280),w,c
  3635  010198  26E1               	addwf	fsr1l,f,c
  3636  01019A  5004               	movf	(oledC_createShape@newShape+1)^(0+1280),w,c
  3637  01019C  22E2               	addwfc	fsr1h,f,c
  3638  01019E  0E07               	movlw	7
  3639  0101A0                     u1681:
  3640  0101A0  C4DB F4E3          	movff	plusw2,plusw1
  3641  0101A4  06E8               	decf	wreg,f,c
  3642  0101A6  E2FC               	bc	u1681
  3643  0101A8                     
  3644                           ;mcc_generated_files/oledC_shapes.c: 74:             newShape->draw = drawString;
  3645  0101A8  EE20 F001          	lfsr	2,1
  3646  0101AC  5003               	movf	oledC_createShape@newShape^(0+1280),w,c
  3647  0101AE  26D9               	addwf	fsr2l,f,c
  3648  0101B0  5004               	movf	(oledC_createShape@newShape+1)^(0+1280),w,c
  3649  0101B2  22DA               	addwfc	fsr2h,f,c
  3650  0101B4  0E96               	movlw	low _drawString
  3651  0101B6  6EDE               	movwf	postinc2,c
  3652  0101B8  0E10               	movlw	high _drawString
  3653  0101BA  6EDE               	movwf	postinc2,c
  3654  0101BC  0E01               	movlw	low (_drawString shr (0+16))
  3655  0101BE  6EDE               	movwf	postinc2,c
  3656                           
  3657                           ;mcc_generated_files/oledC_shapes.c: 75:             break;
  3658  0101C0  EF38  F081         	goto	l43
  3659  0101C4                     l2985:
  3660                           
  3661                           ;mcc_generated_files/oledC_shapes.c: 77:             newShape->params.bitmap = params->b
      +                          itmap;
  3662  0101C4  0061  F404  F4D9   	movff	oledC_createShape@params,fsr2l
  3663  0101CA  0061  F408  F4DA   	movff	oledC_createShape@params+1,fsr2h
  3664  0101D0  EE10 F004          	lfsr	1,4
  3665  0101D4  5003               	movf	oledC_createShape@newShape^(0+1280),w,c
  3666  0101D6  26E1               	addwf	fsr1l,f,c
  3667  0101D8  5004               	movf	(oledC_createShape@newShape+1)^(0+1280),w,c
  3668  0101DA  22E2               	addwfc	fsr1h,f,c
  3669  0101DC  0E08               	movlw	8
  3670  0101DE                     u1691:
  3671  0101DE  C4DB F4E3          	movff	plusw2,plusw1
  3672  0101E2  06E8               	decf	wreg,f,c
  3673  0101E4  E2FC               	bc	u1691
  3674  0101E6                     
  3675                           ;mcc_generated_files/oledC_shapes.c: 78:             newShape->draw = drawBitmap;
  3676  0101E6  EE20 F001          	lfsr	2,1
  3677  0101EA  5003               	movf	oledC_createShape@newShape^(0+1280),w,c
  3678  0101EC  26D9               	addwf	fsr2l,f,c
  3679  0101EE  5004               	movf	(oledC_createShape@newShape+1)^(0+1280),w,c
  3680  0101F0  22DA               	addwfc	fsr2h,f,c
  3681  0101F2  0E12               	movlw	low _drawBitmap
  3682  0101F4  6EDE               	movwf	postinc2,c
  3683  0101F6  0E10               	movlw	high _drawBitmap
  3684  0101F8  6EDE               	movwf	postinc2,c
  3685  0101FA  0E01               	movlw	low (_drawBitmap shr (0+16))
  3686  0101FC  6EDE               	movwf	postinc2,c
  3687                           
  3688                           ;mcc_generated_files/oledC_shapes.c: 79:             break;
  3689  0101FE  EF38  F081         	goto	l43
  3690  010202                     l2989:
  3691                           
  3692                           ;mcc_generated_files/oledC_shapes.c: 81:             newShape->draw = drawPoint;
  3693  010202  EE20 F001          	lfsr	2,1
  3694  010206  5003               	movf	oledC_createShape@newShape^(0+1280),w,c
  3695  010208  26D9               	addwf	fsr2l,f,c
  3696  01020A  5004               	movf	(oledC_createShape@newShape+1)^(0+1280),w,c
  3697  01020C  22DA               	addwfc	fsr2h,f,c
  3698  01020E  0E8E               	movlw	low _drawPoint
  3699  010210  6EDE               	movwf	postinc2,c
  3700  010212  0E16               	movlw	high _drawPoint
  3701  010214  6EDE               	movwf	postinc2,c
  3702  010216  0E01               	movlw	low (_drawPoint shr (0+16))
  3703  010218  6EDE               	movwf	postinc2,c
  3704                           
  3705                           ;mcc_generated_files/oledC_shapes.c: 82:             break;
  3706  01021A  EF38  F081         	goto	l43
  3707  01021E                     l2993:
  3708  01021E  5007               	movf	oledC_createShape@shape_type^(0+1280),w,c
  3709  010220  6E05               	movwf	??_oledC_createShape^(0+1280),c
  3710  010222  6A06               	clrf	(??_oledC_createShape+1)^(0+1280),c
  3711                           
  3712                           ; Switch on 2 bytes has been partitioned into a top level switch of size 1, and 1 sub-sw
      +                          itches
  3713                           ; Switch size 1, requested type "simple"
  3714                           ; Number of cases is 1, Range of values is 0 to 0
  3715                           ; switch strategies available:
  3716                           ; Name         Instructions Cycles
  3717                           ; simple_byte            4     3 (average)
  3718                           ;	Chosen strategy is simple_byte
  3719  010224  5006               	movf	(??_oledC_createShape+1)^(0+1280),w,c
  3720  010226  0A00               	xorlw	0	; case 0
  3721  010228  B4D8               	btfsc	status,2,c
  3722  01022A  EF19  F081         	goto	l3343
  3723  01022E  EF01  F081         	goto	l2989
  3724  010232                     l3343:
  3725                           
  3726                           ; Switch size 1, requested type "simple"
  3727                           ; Number of cases is 7, Range of values is 0 to 7
  3728                           ; switch strategies available:
  3729                           ; Name         Instructions Cycles
  3730                           ; simple_byte           22    12 (average)
  3731                           ;	Chosen strategy is simple_byte
  3732  010232  5005               	movf	??_oledC_createShape^(0+1280),w,c
  3733  010234  0A00               	xorlw	0	; case 0
  3734  010236  B4D8               	btfsc	status,2,c
  3735  010238  EF28  F080         	goto	l2961
  3736  01023C  0A01               	xorlw	1	; case 1
  3737  01023E  B4D8               	btfsc	status,2,c
  3738  010240  EF47  F080         	goto	l2965
  3739  010244  0A03               	xorlw	3	; case 2
  3740  010246  B4D8               	btfsc	status,2,c
  3741  010248  EF66  F080         	goto	l2969
  3742  01024C  0A01               	xorlw	1	; case 3
  3743  01024E  B4D8               	btfsc	status,2,c
  3744  010250  EF85  F080         	goto	l2973
  3745  010254  0A06               	xorlw	6	; case 5
  3746  010256  B4D8               	btfsc	status,2,c
  3747  010258  EFA4  F080         	goto	l2977
  3748  01025C  0A03               	xorlw	3	; case 6
  3749  01025E  B4D8               	btfsc	status,2,c
  3750  010260  EFC3  F080         	goto	l2981
  3751  010264  0A01               	xorlw	1	; case 7
  3752  010266  B4D8               	btfsc	status,2,c
  3753  010268  EFE2  F080         	goto	l2985
  3754  01026C  EF01  F081         	goto	l2989
  3755  010270                     l43:
  3756  010270  0012               	return		;funcret
  3757  010272                     __end_of_oledC_createShape:
  3758                           	callstack 0
  3759                           
  3760 ;; *************** function _oledC_eraseShape *****************
  3761 ;; Defined at:
  3762 ;;		line 104 in file "mcc_generated_files/oledC_shapeHandler.c"
  3763 ;; Parameters:    Size  Location     Type
  3764 ;;  indShape        1    wreg     unsigned char 
  3765 ;;  eraseColor      2   60[COMRAM] unsigned short 
  3766 ;; Auto vars:     Size  Location     Type
  3767 ;;  indShape        1   64[COMRAM] unsigned char 
  3768 ;;  ourShape        2   65[COMRAM] PTR struct shape
  3769 ;;		 -> allParsedShapes(448), 
  3770 ;;  saveColor       2   62[COMRAM] unsigned short 
  3771 ;; Return value:  Size  Location     Type
  3772 ;;                  1    wreg      void 
  3773 ;; Registers used:
  3774 ;;		wreg, fsr2l, fsr2h, status,2, status,0, pclath, tosl, tblptrl, tblptrh, tblptru, prodl, prodh, cstack
  3775 ;; Tracked objects:
  3776 ;;		On entry : 0/0
  3777 ;;		On exit  : 0/0
  3778 ;;		Unchanged: 0/0
  3779 ;; Data sizes:     COMRAM   BANK5   BANK6   BANK7   BANK8   BANK9  BANK10  BANK11  BANK12  BANK13  BANK14  BANK15  BANK1
      +6  BANK17  BANK18  BANK19  BANK20  BANK21  BANK22  BANK23  BANK24  BANK25  BANK26  BANK27  BANK28  BANK29  BANK30  BANK3
      +1  BANK32  BANK33  BANK34  BANK35  BANK36  BANK37
  3780 ;;      Params:         2       0       0       0       0       0       0       0       0       0       0       0       
      +0       0       0       0       0       0       0       0       0       0       0       0       0       0       0       
      +0       0       0       0       0       0       0
  3781 ;;      Locals:         5       0       0       0       0       0       0       0       0       0       0       0       
      +0       0       0       0       0       0       0       0       0       0       0       0       0       0       0       
      +0       0       0       0       0       0       0
  3782 ;;      Temps:          0       0       0       0       0       0       0       0       0       0       0       0       
      +0       0       0       0       0       0       0       0       0       0       0       0       0       0       0       
      +0       0       0       0       0       0       0
  3783 ;;      Totals:         7       0       0       0       0       0       0       0       0       0       0       0       
      +0       0       0       0       0       0       0       0       0       0       0       0       0       0       0       
      +0       0       0       0       0       0       0
  3784 ;;Total ram usage:        7 bytes
  3785 ;; Hardware stack levels used: 1
  3786 ;; Hardware stack levels required when called: 9
  3787 ;; This function calls:
  3788 ;;		_drawBitmap
  3789 ;;		_drawCharacter
  3790 ;;		_drawCircle
  3791 ;;		_drawLine
  3792 ;;		_drawPoint
  3793 ;;		_drawRectangle
  3794 ;;		_drawRing
  3795 ;;		_drawString
  3796 ;;		_dummyshape
  3797 ;;		_oledC_getShape
  3798 ;; This function is called by:
  3799 ;;		_oledC_example
  3800 ;;		_oledC_eraseAll
  3801 ;; This function uses a non-reentrant model
  3802 ;;
  3803                           
  3804                           	psect	text16
  3805  010F8A                     __ptext16:
  3806                           	callstack 0
  3807  010F8A                     _oledC_eraseShape:
  3808                           	callstack 116
  3809                           
  3810                           ;incstack = 0
  3811                           ;oledC_eraseShape@indShape stored from wreg
  3812  010F8A  6E41               	movwf	oledC_eraseShape@indShape^(0+1280),c
  3813  010F8C                     
  3814                           ;mcc_generated_files/oledC_shapeHandler.c: 104: void oledC_eraseShape(uint8_t indShape,u
      +                          int16_t eraseColor);mcc_generated_files/oledC_shapeHandler.c: 105: {;mcc_generated_files
      +                          /oledC_shapeHandler.c: 106:     shape_t* ourShape = oledC_getShape(indShape);
  3815  010F8C  5041               	movf	oledC_eraseShape@indShape^(0+1280),w,c
  3816  010F8E  EC65  F08B         	call	_oledC_getShape
  3817  010F92  C501  F542         	movff	?_oledC_getShape,oledC_eraseShape@ourShape
  3818  010F96  C502  F543         	movff	?_oledC_getShape+1,oledC_eraseShape@ourShape+1
  3819  010F9A                     
  3820                           ;mcc_generated_files/oledC_shapeHandler.c: 107:     uint16_t saveColor = ourShape->param
      +                          s.point.color;
  3821  010F9A  EE20 F004          	lfsr	2,4
  3822  010F9E  5042               	movf	oledC_eraseShape@ourShape^(0+1280),w,c
  3823  010FA0  26D9               	addwf	fsr2l,f,c
  3824  010FA2  5043               	movf	(oledC_eraseShape@ourShape+1)^(0+1280),w,c
  3825  010FA4  22DA               	addwfc	fsr2h,f,c
  3826  010FA6  0061 F378  F53F    	movff	postinc2,oledC_eraseShape@saveColor
  3827  010FAC  0061 F374  F540    	movff	postdec2,oledC_eraseShape@saveColor+1
  3828  010FB2                     
  3829                           ;mcc_generated_files/oledC_shapeHandler.c: 108:     ourShape->params.point.color = erase
      +                          Color;
  3830  010FB2  EE20 F004          	lfsr	2,4
  3831  010FB6  5042               	movf	oledC_eraseShape@ourShape^(0+1280),w,c
  3832  010FB8  26D9               	addwf	fsr2l,f,c
  3833  010FBA  5043               	movf	(oledC_eraseShape@ourShape+1)^(0+1280),w,c
  3834  010FBC  22DA               	addwfc	fsr2h,f,c
  3835  010FBE  0061  F4F4  F4DE   	movff	oledC_eraseShape@eraseColor,postinc2
  3836  010FC4  0061  F4F8  F4DD   	movff	oledC_eraseShape@eraseColor+1,postdec2
  3837  010FCA                     
  3838                           ;mcc_generated_files/oledC_shapeHandler.c: 109:     ourShape->draw(ourShape);
  3839  010FCA  C542  F53B         	movff	oledC_eraseShape@ourShape,dummyshape@shape
  3840  010FCE  C543  F53C         	movff	oledC_eraseShape@ourShape+1,dummyshape@shape+1
  3841  010FD2  EE20 F001          	lfsr	2,1
  3842  010FD6  5042               	movf	oledC_eraseShape@ourShape^(0+1280),w,c
  3843  010FD8  26D9               	addwf	fsr2l,f,c
  3844  010FDA  5043               	movf	(oledC_eraseShape@ourShape+1)^(0+1280),w,c
  3845  010FDC  22DA               	addwfc	fsr2h,f,c
  3846  010FDE  D802               	call	u1818
  3847  010FE0  EFFC  F087         	goto	u1819
  3848  010FE4                     u1818:
  3849  010FE4  0005               	push	
  3850  010FE6  6EFA               	movwf	pclath,c
  3851  010FE8  50DE               	movf	postinc2,w,c
  3852  010FEA  6EFD               	movwf	tosl,c
  3853  010FEC  50DE               	movf	postinc2,w,c
  3854  010FEE  6EFE               	movwf	tosh,c
  3855  010FF0  50DE               	movf	postinc2,w,c
  3856  010FF2  6EFF               	movwf	tosu,c
  3857  010FF4  50FA               	movf	pclath,w,c
  3858  010FF6  0012               	return		;indir
  3859  010FF8                     u1819:
  3860  010FF8                     
  3861                           ;mcc_generated_files/oledC_shapeHandler.c: 110:     ourShape->params.point.color = saveC
      +                          olor;
  3862  010FF8  EE20 F004          	lfsr	2,4
  3863  010FFC  5042               	movf	oledC_eraseShape@ourShape^(0+1280),w,c
  3864  010FFE  26D9               	addwf	fsr2l,f,c
  3865  011000  5043               	movf	(oledC_eraseShape@ourShape+1)^(0+1280),w,c
  3866  011002  22DA               	addwfc	fsr2h,f,c
  3867  011004  0061  F4FC  F4DE   	movff	oledC_eraseShape@saveColor,postinc2
  3868  01100A  0061  F500  F4DD   	movff	oledC_eraseShape@saveColor+1,postdec2
  3869  011010  0012               	return		;funcret
  3870  011012                     __end_of_oledC_eraseShape:
  3871                           	callstack 0
  3872                           
  3873 ;; *************** function _oledC_getShape *****************
  3874 ;; Defined at:
  3875 ;;		line 56 in file "mcc_generated_files/oledC_shapeHandler.c"
  3876 ;; Parameters:    Size  Location     Type
  3877 ;;  index           1    wreg     unsigned char 
  3878 ;; Auto vars:     Size  Location     Type
  3879 ;;  index           1    4[COMRAM] unsigned char 
  3880 ;; Return value:  Size  Location     Type
  3881 ;;                  2    0[COMRAM] PTR struct shape
  3882 ;; Registers used:
  3883 ;;		wreg, status,2, status,0, prodl, prodh
  3884 ;; Tracked objects:
  3885 ;;		On entry : 0/0
  3886 ;;		On exit  : 0/0
  3887 ;;		Unchanged: 0/0
  3888 ;; Data sizes:     COMRAM   BANK5   BANK6   BANK7   BANK8   BANK9  BANK10  BANK11  BANK12  BANK13  BANK14  BANK15  BANK1
      +6  BANK17  BANK18  BANK19  BANK20  BANK21  BANK22  BANK23  BANK24  BANK25  BANK26  BANK27  BANK28  BANK29  BANK30  BANK3
      +1  BANK32  BANK33  BANK34  BANK35  BANK36  BANK37
  3889 ;;      Params:         2       0       0       0       0       0       0       0       0       0       0       0       
      +0       0       0       0       0       0       0       0       0       0       0       0       0       0       0       
      +0       0       0       0       0       0       0
  3890 ;;      Locals:         3       0       0       0       0       0       0       0       0       0       0       0       
      +0       0       0       0       0       0       0       0       0       0       0       0       0       0       0       
      +0       0       0       0       0       0       0
  3891 ;;      Temps:          0       0       0       0       0       0       0       0       0       0       0       0       
      +0       0       0       0       0       0       0       0       0       0       0       0       0       0       0       
      +0       0       0       0       0       0       0
  3892 ;;      Totals:         5       0       0       0       0       0       0       0       0       0       0       0       
      +0       0       0       0       0       0       0       0       0       0       0       0       0       0       0       
      +0       0       0       0       0       0       0
  3893 ;;Total ram usage:        5 bytes
  3894 ;; Hardware stack levels used: 1
  3895 ;; This function calls:
  3896 ;;		Nothing
  3897 ;; This function is called by:
  3898 ;;		_oledC_example
  3899 ;;		_oledC_eraseShape
  3900 ;; This function uses a non-reentrant model
  3901 ;;
  3902                           
  3903                           	psect	text17
  3904  0116CA                     __ptext17:
  3905                           	callstack 0
  3906  0116CA                     _oledC_getShape:
  3907                           	callstack 125
  3908                           
  3909                           ;incstack = 0
  3910                           ;oledC_getShape@index stored from wreg
  3911  0116CA  6E05               	movwf	oledC_getShape@index^(0+1280),c
  3912  0116CC                     
  3913                           ;mcc_generated_files/oledC_shapeHandler.c: 56: shape_t* oledC_getShape(uint8_t index);mc
      +                          c_generated_files/oledC_shapeHandler.c: 57: {;mcc_generated_files/oledC_shapeHandler.c: 
      +                          58:     index = index > 32 ? 32 : index;
  3914  0116CC  0E21               	movlw	33
  3915  0116CE  6005               	cpfslt	oledC_getShape@index^(0+1280),c
  3916  0116D0  EF6C  F08B         	goto	u1801
  3917  0116D4  EF6E  F08B         	goto	u1800
  3918  0116D8                     u1801:
  3919  0116D8  EF73  F08B         	goto	l3071
  3920  0116DC                     u1800:
  3921  0116DC  C505  F503         	movff	oledC_getShape@index,_oledC_getShape$1889
  3922  0116E0  6A04               	clrf	(_oledC_getShape$1889+1)^(0+1280),c
  3923  0116E2  EF77  F08B         	goto	l3073
  3924  0116E6                     l3071:
  3925  0116E6  0E00               	movlw	0
  3926  0116E8  6E04               	movwf	(_oledC_getShape$1889+1)^(0+1280),c
  3927  0116EA  0E20               	movlw	32
  3928  0116EC  6E03               	movwf	_oledC_getShape$1889^(0+1280),c
  3929  0116EE                     l3073:
  3930  0116EE  C503  F505         	movff	_oledC_getShape$1889,oledC_getShape@index
  3931  0116F2                     
  3932                           ;mcc_generated_files/oledC_shapeHandler.c: 59:     return &allParsedShapes[index];
  3933  0116F2  5005               	movf	oledC_getShape@index^(0+1280),w,c
  3934  0116F4  0D0E               	mullw	14
  3935  0116F6  0E40               	movlw	low _allParsedShapes
  3936  0116F8  24F3               	addwf	243,w,c
  3937  0116FA  6E01               	movwf	?_oledC_getShape^(0+1280),c
  3938  0116FC  0E24               	movlw	high _allParsedShapes
  3939  0116FE  20F4               	addwfc	prodh,w,c
  3940  011700  6E02               	movwf	(?_oledC_getShape+1)^(0+1280),c
  3941  011702  0012               	return		;funcret
  3942  011704                     __end_of_oledC_getShape:
  3943                           	callstack 0
  3944                           
  3945 ;; *************** function _drawPoint *****************
  3946 ;; Defined at:
  3947 ;;		line 350 in file "mcc_generated_files/oledC_shapes.c"
  3948 ;; Parameters:    Size  Location     Type
  3949 ;;  shape           2   58[COMRAM] PTR struct shape
  3950 ;;		 -> allParsedShapes(448), 
  3951 ;; Auto vars:     Size  Location     Type
  3952 ;;		None
  3953 ;; Return value:  Size  Location     Type
  3954 ;;                  1    wreg      void 
  3955 ;; Registers used:
  3956 ;;		wreg, fsr2l, fsr2h, status,2, status,0, pclath, tosl, tblptrl, tblptrh, tblptru, prodl, prodh, cstack
  3957 ;; Tracked objects:
  3958 ;;		On entry : 0/0
  3959 ;;		On exit  : 0/0
  3960 ;;		Unchanged: 0/0
  3961 ;; Data sizes:     COMRAM   BANK5   BANK6   BANK7   BANK8   BANK9  BANK10  BANK11  BANK12  BANK13  BANK14  BANK15  BANK1
      +6  BANK17  BANK18  BANK19  BANK20  BANK21  BANK22  BANK23  BANK24  BANK25  BANK26  BANK27  BANK28  BANK29  BANK30  BANK3
      +1  BANK32  BANK33  BANK34  BANK35  BANK36  BANK37
  3962 ;;      Params:         2       0       0       0       0       0       0       0       0       0       0       0       
      +0       0       0       0       0       0       0       0       0       0       0       0       0       0       0       
      +0       0       0       0       0       0       0
  3963 ;;      Locals:         0       0       0       0       0       0       0       0       0       0       0       0       
      +0       0       0       0       0       0       0       0       0       0       0       0       0       0       0       
      +0       0       0       0       0       0       0
  3964 ;;      Temps:          0       0       0       0       0       0       0       0       0       0       0       0       
      +0       0       0       0       0       0       0       0       0       0       0       0       0       0       0       
      +0       0       0       0       0       0       0
  3965 ;;      Totals:         2       0       0       0       0       0       0       0       0       0       0       0       
      +0       0       0       0       0       0       0       0       0       0       0       0       0       0       0       
      +0       0       0       0       0       0       0
  3966 ;;Total ram usage:        2 bytes
  3967 ;; Hardware stack levels used: 1
  3968 ;; Hardware stack levels required when called: 6
  3969 ;; This function calls:
  3970 ;;		_oledC_DrawPoint
  3971 ;; This function is called by:
  3972 ;;		_oledC_createShape
  3973 ;;		_oledC_redrawSome
  3974 ;;		_oledC_eraseShape
  3975 ;;		_oledC_redrawIndex
  3976 ;; This function uses a non-reentrant model
  3977 ;;
  3978                           
  3979                           	psect	text18
  3980  01168E                     __ptext18:
  3981                           	callstack 0
  3982  01168E                     _drawPoint:
  3983                           	callstack 118
  3984  01168E                     
  3985                           ;mcc_generated_files/oledC_shapes.c: 350: static void drawPoint(shape_t *shape);mcc_gene
      +                          rated_files/oledC_shapes.c: 351: {;mcc_generated_files/oledC_shapes.c: 352:     oledC_Dr
      +                          awPoint(
  3986  01168E  EE20 F007          	lfsr	2,7
  3987  011692  503B               	movf	drawPoint@shape^(0+1280),w,c
  3988  011694  26D9               	addwf	fsr2l,f,c
  3989  011696  503C               	movf	(drawPoint@shape+1)^(0+1280),w,c
  3990  011698  22DA               	addwfc	fsr2h,f,c
  3991  01169A  50DF               	movf	indf2,w,c
  3992  01169C  6E14               	movwf	oledC_DrawPoint@y^(0+1280),c
  3993  01169E  EE20 F004          	lfsr	2,4
  3994  0116A2  503B               	movf	drawPoint@shape^(0+1280),w,c
  3995  0116A4  26D9               	addwf	fsr2l,f,c
  3996  0116A6  503C               	movf	(drawPoint@shape+1)^(0+1280),w,c
  3997  0116A8  22DA               	addwfc	fsr2h,f,c
  3998  0116AA  0061 F378  F515    	movff	postinc2,oledC_DrawPoint@color
  3999  0116B0  0061 F374  F516    	movff	postdec2,oledC_DrawPoint@color+1
  4000  0116B6  EE20 F006          	lfsr	2,6
  4001  0116BA  503B               	movf	drawPoint@shape^(0+1280),w,c
  4002  0116BC  26D9               	addwf	fsr2l,f,c
  4003  0116BE  503C               	movf	(drawPoint@shape+1)^(0+1280),w,c
  4004  0116C0  22DA               	addwfc	fsr2h,f,c
  4005  0116C2  50DF               	movf	indf2,w,c
  4006  0116C4  ECE5  F08A         	call	_oledC_DrawPoint
  4007  0116C8  0012               	return		;funcret
  4008  0116CA                     __end_of_drawPoint:
  4009                           	callstack 0
  4010                           
  4011 ;; *************** function _drawBitmap *****************
  4012 ;; Defined at:
  4013 ;;		line 427 in file "mcc_generated_files/oledC_shapes.c"
  4014 ;; Parameters:    Size  Location     Type
  4015 ;;  shape           2   58[COMRAM] PTR struct shape
  4016 ;;		 -> allParsedShapes(448), 
  4017 ;; Auto vars:     Size  Location     Type
  4018 ;;		None
  4019 ;; Return value:  Size  Location     Type
  4020 ;;                  1    wreg      void 
  4021 ;; Registers used:
  4022 ;;		wreg, fsr2l, fsr2h, status,2, status,0, pclath, tosl, tblptrl, tblptrh, tblptru, prodl, prodh, cstack
  4023 ;; Tracked objects:
  4024 ;;		On entry : 0/0
  4025 ;;		On exit  : 0/0
  4026 ;;		Unchanged: 0/0
  4027 ;; Data sizes:     COMRAM   BANK5   BANK6   BANK7   BANK8   BANK9  BANK10  BANK11  BANK12  BANK13  BANK14  BANK15  BANK1
      +6  BANK17  BANK18  BANK19  BANK20  BANK21  BANK22  BANK23  BANK24  BANK25  BANK26  BANK27  BANK28  BANK29  BANK30  BANK3
      +1  BANK32  BANK33  BANK34  BANK35  BANK36  BANK37
  4028 ;;      Params:         2       0       0       0       0       0       0       0       0       0       0       0       
      +0       0       0       0       0       0       0       0       0       0       0       0       0       0       0       
      +0       0       0       0       0       0       0
  4029 ;;      Locals:         0       0       0       0       0       0       0       0       0       0       0       0       
      +0       0       0       0       0       0       0       0       0       0       0       0       0       0       0       
      +0       0       0       0       0       0       0
  4030 ;;      Temps:          0       0       0       0       0       0       0       0       0       0       0       0       
      +0       0       0       0       0       0       0       0       0       0       0       0       0       0       0       
      +0       0       0       0       0       0       0
  4031 ;;      Totals:         2       0       0       0       0       0       0       0       0       0       0       0       
      +0       0       0       0       0       0       0       0       0       0       0       0       0       0       0       
      +0       0       0       0       0       0       0
  4032 ;;Total ram usage:        2 bytes
  4033 ;; Hardware stack levels used: 1
  4034 ;; Hardware stack levels required when called: 7
  4035 ;; This function calls:
  4036 ;;		_oledC_DrawBitmap
  4037 ;; This function is called by:
  4038 ;;		_oledC_createShape
  4039 ;;		_oledC_redrawSome
  4040 ;;		_oledC_eraseShape
  4041 ;;		_oledC_redrawIndex
  4042 ;; This function uses a non-reentrant model
  4043 ;;
  4044                           
  4045                           	psect	text19
  4046  011012                     __ptext19:
  4047                           	callstack 0
  4048  011012                     _drawBitmap:
  4049                           	callstack 117
  4050  011012                     
  4051                           ;mcc_generated_files/oledC_shapes.c: 427: static void drawBitmap(shape_t *shape);mcc_gen
      +                          erated_files/oledC_shapes.c: 428: {;mcc_generated_files/oledC_shapes.c: 429:     oledC_D
      +                          rawBitmap(
  4052  011012  EE20 F007          	lfsr	2,7
  4053  011016  503B               	movf	drawBitmap@shape^(0+1280),w,c
  4054  011018  26D9               	addwf	fsr2l,f,c
  4055  01101A  503C               	movf	(drawBitmap@shape+1)^(0+1280),w,c
  4056  01101C  22DA               	addwfc	fsr2h,f,c
  4057  01101E  50DF               	movf	indf2,w,c
  4058  011020  6E21               	movwf	oledC_DrawBitmap@y^(0+1280),c
  4059  011022  EE20 F004          	lfsr	2,4
  4060  011026  503B               	movf	drawBitmap@shape^(0+1280),w,c
  4061  011028  26D9               	addwf	fsr2l,f,c
  4062  01102A  503C               	movf	(drawBitmap@shape+1)^(0+1280),w,c
  4063  01102C  22DA               	addwfc	fsr2h,f,c
  4064  01102E  0061 F378  F522    	movff	postinc2,oledC_DrawBitmap@color
  4065  011034  0061 F374  F523    	movff	postdec2,oledC_DrawBitmap@color+1
  4066  01103A  EE20 F008          	lfsr	2,8
  4067  01103E  503B               	movf	drawBitmap@shape^(0+1280),w,c
  4068  011040  26D9               	addwf	fsr2l,f,c
  4069  011042  503C               	movf	(drawBitmap@shape+1)^(0+1280),w,c
  4070  011044  22DA               	addwfc	fsr2h,f,c
  4071  011046  50DF               	movf	indf2,w,c
  4072  011048  6E24               	movwf	oledC_DrawBitmap@sx^(0+1280),c
  4073  01104A  EE20 F009          	lfsr	2,9
  4074  01104E  503B               	movf	drawBitmap@shape^(0+1280),w,c
  4075  011050  26D9               	addwf	fsr2l,f,c
  4076  011052  503C               	movf	(drawBitmap@shape+1)^(0+1280),w,c
  4077  011054  22DA               	addwfc	fsr2h,f,c
  4078  011056  50DF               	movf	indf2,w,c
  4079  011058  6E25               	movwf	oledC_DrawBitmap@sy^(0+1280),c
  4080  01105A  EE20 F00A          	lfsr	2,10
  4081  01105E  503B               	movf	drawBitmap@shape^(0+1280),w,c
  4082  011060  26D9               	addwf	fsr2l,f,c
  4083  011062  503C               	movf	(drawBitmap@shape+1)^(0+1280),w,c
  4084  011064  22DA               	addwfc	fsr2h,f,c
  4085  011066  0061 F378  F526    	movff	postinc2,oledC_DrawBitmap@bitmap
  4086  01106C  0061 F374  F527    	movff	postdec2,oledC_DrawBitmap@bitmap+1
  4087  011072  EE20 F00C          	lfsr	2,12
  4088  011076  503B               	movf	drawBitmap@shape^(0+1280),w,c
  4089  011078  26D9               	addwf	fsr2l,f,c
  4090  01107A  503C               	movf	(drawBitmap@shape+1)^(0+1280),w,c
  4091  01107C  22DA               	addwfc	fsr2h,f,c
  4092  01107E  50DF               	movf	indf2,w,c
  4093  011080  6E28               	movwf	oledC_DrawBitmap@bitmap_length^(0+1280),c
  4094  011082  EE20 F006          	lfsr	2,6
  4095  011086  503B               	movf	drawBitmap@shape^(0+1280),w,c
  4096  011088  26D9               	addwf	fsr2l,f,c
  4097  01108A  503C               	movf	(drawBitmap@shape+1)^(0+1280),w,c
  4098  01108C  22DA               	addwfc	fsr2h,f,c
  4099  01108E  50DF               	movf	indf2,w,c
  4100  011090  ECC7  F082         	call	_oledC_DrawBitmap
  4101  011094  0012               	return		;funcret
  4102  011096                     __end_of_drawBitmap:
  4103                           	callstack 0
  4104                           
  4105 ;; *************** function _drawString *****************
  4106 ;; Defined at:
  4107 ;;		line 415 in file "mcc_generated_files/oledC_shapes.c"
  4108 ;; Parameters:    Size  Location     Type
  4109 ;;  shape           2   58[COMRAM] PTR struct shape
  4110 ;;		 -> allParsedShapes(448), 
  4111 ;; Auto vars:     Size  Location     Type
  4112 ;;		None
  4113 ;; Return value:  Size  Location     Type
  4114 ;;                  1    wreg      void 
  4115 ;; Registers used:
  4116 ;;		wreg, fsr2l, fsr2h, status,2, status,0, pclath, tosl, tblptrl, tblptrh, tblptru, prodl, prodh, cstack
  4117 ;; Tracked objects:
  4118 ;;		On entry : 0/0
  4119 ;;		On exit  : 0/0
  4120 ;;		Unchanged: 0/0
  4121 ;; Data sizes:     COMRAM   BANK5   BANK6   BANK7   BANK8   BANK9  BANK10  BANK11  BANK12  BANK13  BANK14  BANK15  BANK1
      +6  BANK17  BANK18  BANK19  BANK20  BANK21  BANK22  BANK23  BANK24  BANK25  BANK26  BANK27  BANK28  BANK29  BANK30  BANK3
      +1  BANK32  BANK33  BANK34  BANK35  BANK36  BANK37
  4122 ;;      Params:         2       0       0       0       0       0       0       0       0       0       0       0       
      +0       0       0       0       0       0       0       0       0       0       0       0       0       0       0       
      +0       0       0       0       0       0       0
  4123 ;;      Locals:         0       0       0       0       0       0       0       0       0       0       0       0       
      +0       0       0       0       0       0       0       0       0       0       0       0       0       0       0       
      +0       0       0       0       0       0       0
  4124 ;;      Temps:          0       0       0       0       0       0       0       0       0       0       0       0       
      +0       0       0       0       0       0       0       0       0       0       0       0       0       0       0       
      +0       0       0       0       0       0       0
  4125 ;;      Totals:         2       0       0       0       0       0       0       0       0       0       0       0       
      +0       0       0       0       0       0       0       0       0       0       0       0       0       0       0       
      +0       0       0       0       0       0       0
  4126 ;;Total ram usage:        2 bytes
  4127 ;; Hardware stack levels used: 1
  4128 ;; Hardware stack levels required when called: 8
  4129 ;; This function calls:
  4130 ;;		_oledC_DrawString
  4131 ;; This function is called by:
  4132 ;;		_oledC_createShape
  4133 ;;		_oledC_redrawSome
  4134 ;;		_oledC_eraseShape
  4135 ;;		_oledC_redrawIndex
  4136 ;; This function uses a non-reentrant model
  4137 ;;
  4138                           
  4139                           	psect	text20
  4140  011096                     __ptext20:
  4141                           	callstack 0
  4142  011096                     _drawString:
  4143                           	callstack 116
  4144  011096                     
  4145                           ;mcc_generated_files/oledC_shapes.c: 415: static void drawString(shape_t *shape);mcc_gen
      +                          erated_files/oledC_shapes.c: 416: {;mcc_generated_files/oledC_shapes.c: 417:     oledC_D
      +                          rawString(
  4146  011096  EE20 F007          	lfsr	2,7
  4147  01109A  503B               	movf	drawString@shape^(0+1280),w,c
  4148  01109C  26D9               	addwf	fsr2l,f,c
  4149  01109E  503C               	movf	(drawString@shape+1)^(0+1280),w,c
  4150  0110A0  22DA               	addwfc	fsr2h,f,c
  4151  0110A2  50DF               	movf	indf2,w,c
  4152  0110A4  6E33               	movwf	oledC_DrawString@y^(0+1280),c
  4153  0110A6  EE20 F008          	lfsr	2,8
  4154  0110AA  503B               	movf	drawString@shape^(0+1280),w,c
  4155  0110AC  26D9               	addwf	fsr2l,f,c
  4156  0110AE  503C               	movf	(drawString@shape+1)^(0+1280),w,c
  4157  0110B0  22DA               	addwfc	fsr2h,f,c
  4158  0110B2  50DF               	movf	indf2,w,c
  4159  0110B4  6E34               	movwf	oledC_DrawString@sx^(0+1280),c
  4160  0110B6  EE20 F009          	lfsr	2,9
  4161  0110BA  503B               	movf	drawString@shape^(0+1280),w,c
  4162  0110BC  26D9               	addwf	fsr2l,f,c
  4163  0110BE  503C               	movf	(drawString@shape+1)^(0+1280),w,c
  4164  0110C0  22DA               	addwfc	fsr2h,f,c
  4165  0110C2  50DF               	movf	indf2,w,c
  4166  0110C4  6E35               	movwf	oledC_DrawString@sy^(0+1280),c
  4167  0110C6  EE20 F00A          	lfsr	2,10
  4168  0110CA  503B               	movf	drawString@shape^(0+1280),w,c
  4169  0110CC  26D9               	addwf	fsr2l,f,c
  4170  0110CE  503C               	movf	(drawString@shape+1)^(0+1280),w,c
  4171  0110D0  22DA               	addwfc	fsr2h,f,c
  4172  0110D2  0061 F378  F536    	movff	postinc2,oledC_DrawString@string
  4173  0110D8  0061 F374  F537    	movff	postdec2,oledC_DrawString@string+1
  4174  0110DE  EE20 F004          	lfsr	2,4
  4175  0110E2  503B               	movf	drawString@shape^(0+1280),w,c
  4176  0110E4  26D9               	addwf	fsr2l,f,c
  4177  0110E6  503C               	movf	(drawString@shape+1)^(0+1280),w,c
  4178  0110E8  22DA               	addwfc	fsr2h,f,c
  4179  0110EA  0061 F378  F538    	movff	postinc2,oledC_DrawString@color
  4180  0110F0  0061 F374  F539    	movff	postdec2,oledC_DrawString@color+1
  4181  0110F6  EE20 F006          	lfsr	2,6
  4182  0110FA  503B               	movf	drawString@shape^(0+1280),w,c
  4183  0110FC  26D9               	addwf	fsr2l,f,c
  4184  0110FE  503C               	movf	(drawString@shape+1)^(0+1280),w,c
  4185  011100  22DA               	addwfc	fsr2h,f,c
  4186  011102  50DF               	movf	indf2,w,c
  4187  011104  EC28  F089         	call	_oledC_DrawString
  4188  011108  0012               	return		;funcret
  4189  01110A                     __end_of_drawString:
  4190                           	callstack 0
  4191                           
  4192 ;; *************** function _drawCharacter *****************
  4193 ;; Defined at:
  4194 ;;		line 403 in file "mcc_generated_files/oledC_shapes.c"
  4195 ;; Parameters:    Size  Location     Type
  4196 ;;  shape           2   58[COMRAM] PTR struct shape
  4197 ;;		 -> allParsedShapes(448), 
  4198 ;; Auto vars:     Size  Location     Type
  4199 ;;		None
  4200 ;; Return value:  Size  Location     Type
  4201 ;;                  1    wreg      void 
  4202 ;; Registers used:
  4203 ;;		wreg, fsr2l, fsr2h, status,2, status,0, pclath, tosl, tblptrl, tblptrh, tblptru, prodl, prodh, cstack
  4204 ;; Tracked objects:
  4205 ;;		On entry : 0/0
  4206 ;;		On exit  : 0/0
  4207 ;;		Unchanged: 0/0
  4208 ;; Data sizes:     COMRAM   BANK5   BANK6   BANK7   BANK8   BANK9  BANK10  BANK11  BANK12  BANK13  BANK14  BANK15  BANK1
      +6  BANK17  BANK18  BANK19  BANK20  BANK21  BANK22  BANK23  BANK24  BANK25  BANK26  BANK27  BANK28  BANK29  BANK30  BANK3
      +1  BANK32  BANK33  BANK34  BANK35  BANK36  BANK37
  4209 ;;      Params:         2       0       0       0       0       0       0       0       0       0       0       0       
      +0       0       0       0       0       0       0       0       0       0       0       0       0       0       0       
      +0       0       0       0       0       0       0
  4210 ;;      Locals:         0       0       0       0       0       0       0       0       0       0       0       0       
      +0       0       0       0       0       0       0       0       0       0       0       0       0       0       0       
      +0       0       0       0       0       0       0
  4211 ;;      Temps:          0       0       0       0       0       0       0       0       0       0       0       0       
      +0       0       0       0       0       0       0       0       0       0       0       0       0       0       0       
      +0       0       0       0       0       0       0
  4212 ;;      Totals:         2       0       0       0       0       0       0       0       0       0       0       0       
      +0       0       0       0       0       0       0       0       0       0       0       0       0       0       0       
      +0       0       0       0       0       0       0
  4213 ;;Total ram usage:        2 bytes
  4214 ;; Hardware stack levels used: 1
  4215 ;; Hardware stack levels required when called: 7
  4216 ;; This function calls:
  4217 ;;		_oledC_DrawCharacter
  4218 ;; This function is called by:
  4219 ;;		_oledC_createShape
  4220 ;;		_oledC_redrawSome
  4221 ;;		_oledC_eraseShape
  4222 ;;		_oledC_redrawIndex
  4223 ;; This function uses a non-reentrant model
  4224 ;;
  4225                           
  4226                           	psect	text21
  4227  011178                     __ptext21:
  4228                           	callstack 0
  4229  011178                     _drawCharacter:
  4230                           	callstack 117
  4231  011178                     
  4232                           ;mcc_generated_files/oledC_shapes.c: 403: static void drawCharacter(shape_t *shape);mcc_
      +                          generated_files/oledC_shapes.c: 404: {;mcc_generated_files/oledC_shapes.c: 405:     oled
      +                          C_DrawCharacter(
  4233  011178  EE20 F007          	lfsr	2,7
  4234  01117C  503B               	movf	drawCharacter@shape^(0+1280),w,c
  4235  01117E  26D9               	addwf	fsr2l,f,c
  4236  011180  503C               	movf	(drawCharacter@shape+1)^(0+1280),w,c
  4237  011182  22DA               	addwfc	fsr2h,f,c
  4238  011184  50DF               	movf	indf2,w,c
  4239  011186  6E21               	movwf	oledC_DrawCharacter@y^(0+1280),c
  4240  011188  EE20 F008          	lfsr	2,8
  4241  01118C  503B               	movf	drawCharacter@shape^(0+1280),w,c
  4242  01118E  26D9               	addwf	fsr2l,f,c
  4243  011190  503C               	movf	(drawCharacter@shape+1)^(0+1280),w,c
  4244  011192  22DA               	addwfc	fsr2h,f,c
  4245  011194  50DF               	movf	indf2,w,c
  4246  011196  6E22               	movwf	oledC_DrawCharacter@sx^(0+1280),c
  4247  011198  EE20 F009          	lfsr	2,9
  4248  01119C  503B               	movf	drawCharacter@shape^(0+1280),w,c
  4249  01119E  26D9               	addwf	fsr2l,f,c
  4250  0111A0  503C               	movf	(drawCharacter@shape+1)^(0+1280),w,c
  4251  0111A2  22DA               	addwfc	fsr2h,f,c
  4252  0111A4  50DF               	movf	indf2,w,c
  4253  0111A6  6E23               	movwf	oledC_DrawCharacter@sy^(0+1280),c
  4254  0111A8  EE20 F00A          	lfsr	2,10
  4255  0111AC  503B               	movf	drawCharacter@shape^(0+1280),w,c
  4256  0111AE  26D9               	addwf	fsr2l,f,c
  4257  0111B0  503C               	movf	(drawCharacter@shape+1)^(0+1280),w,c
  4258  0111B2  22DA               	addwfc	fsr2h,f,c
  4259  0111B4  50DF               	movf	indf2,w,c
  4260  0111B6  6E24               	movwf	oledC_DrawCharacter@ch^(0+1280),c
  4261  0111B8  EE20 F004          	lfsr	2,4
  4262  0111BC  503B               	movf	drawCharacter@shape^(0+1280),w,c
  4263  0111BE  26D9               	addwf	fsr2l,f,c
  4264  0111C0  503C               	movf	(drawCharacter@shape+1)^(0+1280),w,c
  4265  0111C2  22DA               	addwfc	fsr2h,f,c
  4266  0111C4  0061 F378  F525    	movff	postinc2,oledC_DrawCharacter@color
  4267  0111CA  0061 F374  F526    	movff	postdec2,oledC_DrawCharacter@color+1
  4268  0111D0  EE20 F006          	lfsr	2,6
  4269  0111D4  503B               	movf	drawCharacter@shape^(0+1280),w,c
  4270  0111D6  26D9               	addwf	fsr2l,f,c
  4271  0111D8  503C               	movf	(drawCharacter@shape+1)^(0+1280),w,c
  4272  0111DA  22DA               	addwfc	fsr2h,f,c
  4273  0111DC  50DF               	movf	indf2,w,c
  4274  0111DE  EC5D  F084         	call	_oledC_DrawCharacter
  4275  0111E2  0012               	return		;funcret
  4276  0111E4                     __end_of_drawCharacter:
  4277                           	callstack 0
  4278                           
  4279 ;; *************** function _drawLine *****************
  4280 ;; Defined at:
  4281 ;;		line 391 in file "mcc_generated_files/oledC_shapes.c"
  4282 ;; Parameters:    Size  Location     Type
  4283 ;;  shape           2   58[COMRAM] PTR struct shape
  4284 ;;		 -> allParsedShapes(448), 
  4285 ;; Auto vars:     Size  Location     Type
  4286 ;;		None
  4287 ;; Return value:  Size  Location     Type
  4288 ;;                  1    wreg      void 
  4289 ;; Registers used:
  4290 ;;		wreg, fsr2l, fsr2h, status,2, status,0, pclath, tosl, tblptrl, tblptrh, tblptru, prodl, prodh, cstack
  4291 ;; Tracked objects:
  4292 ;;		On entry : 0/0
  4293 ;;		On exit  : 0/0
  4294 ;;		Unchanged: 0/0
  4295 ;; Data sizes:     COMRAM   BANK5   BANK6   BANK7   BANK8   BANK9  BANK10  BANK11  BANK12  BANK13  BANK14  BANK15  BANK1
      +6  BANK17  BANK18  BANK19  BANK20  BANK21  BANK22  BANK23  BANK24  BANK25  BANK26  BANK27  BANK28  BANK29  BANK30  BANK3
      +1  BANK32  BANK33  BANK34  BANK35  BANK36  BANK37
  4296 ;;      Params:         2       0       0       0       0       0       0       0       0       0       0       0       
      +0       0       0       0       0       0       0       0       0       0       0       0       0       0       0       
      +0       0       0       0       0       0       0
  4297 ;;      Locals:         0       0       0       0       0       0       0       0       0       0       0       0       
      +0       0       0       0       0       0       0       0       0       0       0       0       0       0       0       
      +0       0       0       0       0       0       0
  4298 ;;      Temps:          0       0       0       0       0       0       0       0       0       0       0       0       
      +0       0       0       0       0       0       0       0       0       0       0       0       0       0       0       
      +0       0       0       0       0       0       0
  4299 ;;      Totals:         2       0       0       0       0       0       0       0       0       0       0       0       
      +0       0       0       0       0       0       0       0       0       0       0       0       0       0       0       
      +0       0       0       0       0       0       0
  4300 ;;Total ram usage:        2 bytes
  4301 ;; Hardware stack levels used: 1
  4302 ;; Hardware stack levels required when called: 8
  4303 ;; This function calls:
  4304 ;;		_oledC_DrawLine
  4305 ;; This function is called by:
  4306 ;;		_oledC_createShape
  4307 ;;		_oledC_redrawSome
  4308 ;;		_oledC_eraseShape
  4309 ;;		_oledC_redrawIndex
  4310 ;; This function uses a non-reentrant model
  4311 ;;
  4312                           
  4313                           	psect	text22
  4314  0111E4                     __ptext22:
  4315                           	callstack 0
  4316  0111E4                     _drawLine:
  4317                           	callstack 116
  4318  0111E4                     
  4319                           ;mcc_generated_files/oledC_shapes.c: 391: static void drawLine(shape_t *shape);mcc_gener
      +                          ated_files/oledC_shapes.c: 392: {;mcc_generated_files/oledC_shapes.c: 393:     oledC_Dra
      +                          wLine(
  4320  0111E4  EE20 F007          	lfsr	2,7
  4321  0111E8  503B               	movf	drawLine@shape^(0+1280),w,c
  4322  0111EA  26D9               	addwf	fsr2l,f,c
  4323  0111EC  503C               	movf	(drawLine@shape+1)^(0+1280),w,c
  4324  0111EE  22DA               	addwfc	fsr2h,f,c
  4325  0111F0  50DF               	movf	indf2,w,c
  4326  0111F2  6E26               	movwf	oledC_DrawLine@y0^(0+1280),c
  4327  0111F4  EE20 F009          	lfsr	2,9
  4328  0111F8  503B               	movf	drawLine@shape^(0+1280),w,c
  4329  0111FA  26D9               	addwf	fsr2l,f,c
  4330  0111FC  503C               	movf	(drawLine@shape+1)^(0+1280),w,c
  4331  0111FE  22DA               	addwfc	fsr2h,f,c
  4332  011200  50DF               	movf	indf2,w,c
  4333  011202  6E27               	movwf	oledC_DrawLine@x1^(0+1280),c
  4334  011204  EE20 F00A          	lfsr	2,10
  4335  011208  503B               	movf	drawLine@shape^(0+1280),w,c
  4336  01120A  26D9               	addwf	fsr2l,f,c
  4337  01120C  503C               	movf	(drawLine@shape+1)^(0+1280),w,c
  4338  01120E  22DA               	addwfc	fsr2h,f,c
  4339  011210  50DF               	movf	indf2,w,c
  4340  011212  6E28               	movwf	oledC_DrawLine@y1^(0+1280),c
  4341  011214  EE20 F008          	lfsr	2,8
  4342  011218  503B               	movf	drawLine@shape^(0+1280),w,c
  4343  01121A  26D9               	addwf	fsr2l,f,c
  4344  01121C  503C               	movf	(drawLine@shape+1)^(0+1280),w,c
  4345  01121E  22DA               	addwfc	fsr2h,f,c
  4346  011220  50DF               	movf	indf2,w,c
  4347  011222  6E29               	movwf	oledC_DrawLine@width^(0+1280),c
  4348  011224  EE20 F004          	lfsr	2,4
  4349  011228  503B               	movf	drawLine@shape^(0+1280),w,c
  4350  01122A  26D9               	addwf	fsr2l,f,c
  4351  01122C  503C               	movf	(drawLine@shape+1)^(0+1280),w,c
  4352  01122E  22DA               	addwfc	fsr2h,f,c
  4353  011230  0061 F378  F52A    	movff	postinc2,oledC_DrawLine@color
  4354  011236  0061 F374  F52B    	movff	postdec2,oledC_DrawLine@color+1
  4355  01123C  EE20 F006          	lfsr	2,6
  4356  011240  503B               	movf	drawLine@shape^(0+1280),w,c
  4357  011242  26D9               	addwf	fsr2l,f,c
  4358  011244  503C               	movf	(drawLine@shape+1)^(0+1280),w,c
  4359  011246  22DA               	addwfc	fsr2h,f,c
  4360  011248  50DF               	movf	indf2,w,c
  4361  01124A  EC5B  F083         	call	_oledC_DrawLine
  4362  01124E  0012               	return		;funcret
  4363  011250                     __end_of_drawLine:
  4364                           	callstack 0
  4365                           
  4366 ;; *************** function _drawRectangle *****************
  4367 ;; Defined at:
  4368 ;;		line 380 in file "mcc_generated_files/oledC_shapes.c"
  4369 ;; Parameters:    Size  Location     Type
  4370 ;;  shape           2   58[COMRAM] PTR struct shape
  4371 ;;		 -> allParsedShapes(448), 
  4372 ;; Auto vars:     Size  Location     Type
  4373 ;;		None
  4374 ;; Return value:  Size  Location     Type
  4375 ;;                  1    wreg      void 
  4376 ;; Registers used:
  4377 ;;		wreg, fsr2l, fsr2h, status,2, status,0, pclath, tosl, tblptrl, tblptrh, tblptru, prodl, prodh, cstack
  4378 ;; Tracked objects:
  4379 ;;		On entry : 0/0
  4380 ;;		On exit  : 0/0
  4381 ;;		Unchanged: 0/0
  4382 ;; Data sizes:     COMRAM   BANK5   BANK6   BANK7   BANK8   BANK9  BANK10  BANK11  BANK12  BANK13  BANK14  BANK15  BANK1
      +6  BANK17  BANK18  BANK19  BANK20  BANK21  BANK22  BANK23  BANK24  BANK25  BANK26  BANK27  BANK28  BANK29  BANK30  BANK3
      +1  BANK32  BANK33  BANK34  BANK35  BANK36  BANK37
  4383 ;;      Params:         2       0       0       0       0       0       0       0       0       0       0       0       
      +0       0       0       0       0       0       0       0       0       0       0       0       0       0       0       
      +0       0       0       0       0       0       0
  4384 ;;      Locals:         0       0       0       0       0       0       0       0       0       0       0       0       
      +0       0       0       0       0       0       0       0       0       0       0       0       0       0       0       
      +0       0       0       0       0       0       0
  4385 ;;      Temps:          0       0       0       0       0       0       0       0       0       0       0       0       
      +0       0       0       0       0       0       0       0       0       0       0       0       0       0       0       
      +0       0       0       0       0       0       0
  4386 ;;      Totals:         2       0       0       0       0       0       0       0       0       0       0       0       
      +0       0       0       0       0       0       0       0       0       0       0       0       0       0       0       
      +0       0       0       0       0       0       0
  4387 ;;Total ram usage:        2 bytes
  4388 ;; Hardware stack levels used: 1
  4389 ;; Hardware stack levels required when called: 6
  4390 ;; This function calls:
  4391 ;;		_oledC_DrawRectangle
  4392 ;; This function is called by:
  4393 ;;		_oledC_createShape
  4394 ;;		_oledC_redrawSome
  4395 ;;		_oledC_eraseShape
  4396 ;;		_oledC_redrawIndex
  4397 ;; This function uses a non-reentrant model
  4398 ;;
  4399                           
  4400                           	psect	text23
  4401  0113DE                     __ptext23:
  4402                           	callstack 0
  4403  0113DE                     _drawRectangle:
  4404                           	callstack 118
  4405  0113DE                     
  4406                           ;mcc_generated_files/oledC_shapes.c: 380: static void drawRectangle(shape_t *shape);mcc_
      +                          generated_files/oledC_shapes.c: 381: {;mcc_generated_files/oledC_shapes.c: 382:     oled
      +                          C_DrawRectangle(
  4407  0113DE  EE20 F007          	lfsr	2,7
  4408  0113E2  503B               	movf	drawRectangle@shape^(0+1280),w,c
  4409  0113E4  26D9               	addwf	fsr2l,f,c
  4410  0113E6  503C               	movf	(drawRectangle@shape+1)^(0+1280),w,c
  4411  0113E8  22DA               	addwfc	fsr2h,f,c
  4412  0113EA  50DF               	movf	indf2,w,c
  4413  0113EC  6E14               	movwf	oledC_DrawRectangle@start_y^(0+1280),c
  4414  0113EE  EE20 F008          	lfsr	2,8
  4415  0113F2  503B               	movf	drawRectangle@shape^(0+1280),w,c
  4416  0113F4  26D9               	addwf	fsr2l,f,c
  4417  0113F6  503C               	movf	(drawRectangle@shape+1)^(0+1280),w,c
  4418  0113F8  22DA               	addwfc	fsr2h,f,c
  4419  0113FA  50DF               	movf	indf2,w,c
  4420  0113FC  6E15               	movwf	oledC_DrawRectangle@end_x^(0+1280),c
  4421  0113FE  EE20 F009          	lfsr	2,9
  4422  011402  503B               	movf	drawRectangle@shape^(0+1280),w,c
  4423  011404  26D9               	addwf	fsr2l,f,c
  4424  011406  503C               	movf	(drawRectangle@shape+1)^(0+1280),w,c
  4425  011408  22DA               	addwfc	fsr2h,f,c
  4426  01140A  50DF               	movf	indf2,w,c
  4427  01140C  6E16               	movwf	oledC_DrawRectangle@end_y^(0+1280),c
  4428  01140E  EE20 F004          	lfsr	2,4
  4429  011412  503B               	movf	drawRectangle@shape^(0+1280),w,c
  4430  011414  26D9               	addwf	fsr2l,f,c
  4431  011416  503C               	movf	(drawRectangle@shape+1)^(0+1280),w,c
  4432  011418  22DA               	addwfc	fsr2h,f,c
  4433  01141A  0061 F378  F517    	movff	postinc2,oledC_DrawRectangle@color
  4434  011420  0061 F374  F518    	movff	postdec2,oledC_DrawRectangle@color+1
  4435  011426  EE20 F006          	lfsr	2,6
  4436  01142A  503B               	movf	drawRectangle@shape^(0+1280),w,c
  4437  01142C  26D9               	addwf	fsr2l,f,c
  4438  01142E  503C               	movf	(drawRectangle@shape+1)^(0+1280),w,c
  4439  011430  22DA               	addwfc	fsr2h,f,c
  4440  011432  50DF               	movf	indf2,w,c
  4441  011434  EC77  F087         	call	_oledC_DrawRectangle
  4442  011438  0012               	return		;funcret
  4443  01143A                     __end_of_drawRectangle:
  4444                           	callstack 0
  4445                           
  4446 ;; *************** function _drawRing *****************
  4447 ;; Defined at:
  4448 ;;		line 369 in file "mcc_generated_files/oledC_shapes.c"
  4449 ;; Parameters:    Size  Location     Type
  4450 ;;  shape           2   58[COMRAM] PTR struct shape
  4451 ;;		 -> allParsedShapes(448), 
  4452 ;; Auto vars:     Size  Location     Type
  4453 ;;		None
  4454 ;; Return value:  Size  Location     Type
  4455 ;;                  1    wreg      void 
  4456 ;; Registers used:
  4457 ;;		wreg, fsr2l, fsr2h, status,2, status,0, pclath, tosl, tblptrl, tblptrh, tblptru, prodl, prodh, cstack
  4458 ;; Tracked objects:
  4459 ;;		On entry : 0/0
  4460 ;;		On exit  : 0/0
  4461 ;;		Unchanged: 0/0
  4462 ;; Data sizes:     COMRAM   BANK5   BANK6   BANK7   BANK8   BANK9  BANK10  BANK11  BANK12  BANK13  BANK14  BANK15  BANK1
      +6  BANK17  BANK18  BANK19  BANK20  BANK21  BANK22  BANK23  BANK24  BANK25  BANK26  BANK27  BANK28  BANK29  BANK30  BANK3
      +1  BANK32  BANK33  BANK34  BANK35  BANK36  BANK37
  4463 ;;      Params:         2       0       0       0       0       0       0       0       0       0       0       0       
      +0       0       0       0       0       0       0       0       0       0       0       0       0       0       0       
      +0       0       0       0       0       0       0
  4464 ;;      Locals:         0       0       0       0       0       0       0       0       0       0       0       0       
      +0       0       0       0       0       0       0       0       0       0       0       0       0       0       0       
      +0       0       0       0       0       0       0
  4465 ;;      Temps:          0       0       0       0       0       0       0       0       0       0       0       0       
      +0       0       0       0       0       0       0       0       0       0       0       0       0       0       0       
      +0       0       0       0       0       0       0
  4466 ;;      Totals:         2       0       0       0       0       0       0       0       0       0       0       0       
      +0       0       0       0       0       0       0       0       0       0       0       0       0       0       0       
      +0       0       0       0       0       0       0
  4467 ;;Total ram usage:        2 bytes
  4468 ;; Hardware stack levels used: 1
  4469 ;; Hardware stack levels required when called: 7
  4470 ;; This function calls:
  4471 ;;		_oledC_DrawRing
  4472 ;; This function is called by:
  4473 ;;		_oledC_createShape
  4474 ;;		_oledC_redrawSome
  4475 ;;		_oledC_eraseShape
  4476 ;;		_oledC_redrawIndex
  4477 ;; This function uses a non-reentrant model
  4478 ;;
  4479                           
  4480                           	psect	text24
  4481  01143A                     __ptext24:
  4482                           	callstack 0
  4483  01143A                     _drawRing:
  4484                           	callstack 117
  4485  01143A                     
  4486                           ;mcc_generated_files/oledC_shapes.c: 369: static void drawRing(shape_t *shape);mcc_gener
      +                          ated_files/oledC_shapes.c: 370: {;mcc_generated_files/oledC_shapes.c: 371:     oledC_Dra
      +                          wRing(
  4487  01143A  EE20 F007          	lfsr	2,7
  4488  01143E  503B               	movf	drawRing@shape^(0+1280),w,c
  4489  011440  26D9               	addwf	fsr2l,f,c
  4490  011442  503C               	movf	(drawRing@shape+1)^(0+1280),w,c
  4491  011444  22DA               	addwfc	fsr2h,f,c
  4492  011446  50DF               	movf	indf2,w,c
  4493  011448  6E18               	movwf	oledC_DrawRing@y0^(0+1280),c
  4494  01144A  EE20 F008          	lfsr	2,8
  4495  01144E  503B               	movf	drawRing@shape^(0+1280),w,c
  4496  011450  26D9               	addwf	fsr2l,f,c
  4497  011452  503C               	movf	(drawRing@shape+1)^(0+1280),w,c
  4498  011454  22DA               	addwfc	fsr2h,f,c
  4499  011456  50DF               	movf	indf2,w,c
  4500  011458  6E19               	movwf	oledC_DrawRing@radius^(0+1280),c
  4501  01145A  EE20 F009          	lfsr	2,9
  4502  01145E  503B               	movf	drawRing@shape^(0+1280),w,c
  4503  011460  26D9               	addwf	fsr2l,f,c
  4504  011462  503C               	movf	(drawRing@shape+1)^(0+1280),w,c
  4505  011464  22DA               	addwfc	fsr2h,f,c
  4506  011466  50DF               	movf	indf2,w,c
  4507  011468  6E1A               	movwf	oledC_DrawRing@width^(0+1280),c
  4508  01146A  EE20 F004          	lfsr	2,4
  4509  01146E  503B               	movf	drawRing@shape^(0+1280),w,c
  4510  011470  26D9               	addwf	fsr2l,f,c
  4511  011472  503C               	movf	(drawRing@shape+1)^(0+1280),w,c
  4512  011474  22DA               	addwfc	fsr2h,f,c
  4513  011476  0061 F378  F51B    	movff	postinc2,oledC_DrawRing@color
  4514  01147C  0061 F374  F51C    	movff	postdec2,oledC_DrawRing@color+1
  4515  011482  EE20 F006          	lfsr	2,6
  4516  011486  503B               	movf	drawRing@shape^(0+1280),w,c
  4517  011488  26D9               	addwf	fsr2l,f,c
  4518  01148A  503C               	movf	(drawRing@shape+1)^(0+1280),w,c
  4519  01148C  22DA               	addwfc	fsr2h,f,c
  4520  01148E  50DF               	movf	indf2,w,c
  4521  011490  EC18  F082         	call	_oledC_DrawRing
  4522  011494  0012               	return		;funcret
  4523  011496                     __end_of_drawRing:
  4524                           	callstack 0
  4525                           
  4526 ;; *************** function _drawCircle *****************
  4527 ;; Defined at:
  4528 ;;		line 359 in file "mcc_generated_files/oledC_shapes.c"
  4529 ;; Parameters:    Size  Location     Type
  4530 ;;  shape           2   58[COMRAM] PTR struct shape
  4531 ;;		 -> allParsedShapes(448), 
  4532 ;; Auto vars:     Size  Location     Type
  4533 ;;		None
  4534 ;; Return value:  Size  Location     Type
  4535 ;;                  1    wreg      void 
  4536 ;; Registers used:
  4537 ;;		wreg, fsr2l, fsr2h, status,2, status,0, pclath, tosl, tblptrl, tblptrh, tblptru, prodl, prodh, cstack
  4538 ;; Tracked objects:
  4539 ;;		On entry : 0/0
  4540 ;;		On exit  : 0/0
  4541 ;;		Unchanged: 0/0
  4542 ;; Data sizes:     COMRAM   BANK5   BANK6   BANK7   BANK8   BANK9  BANK10  BANK11  BANK12  BANK13  BANK14  BANK15  BANK1
      +6  BANK17  BANK18  BANK19  BANK20  BANK21  BANK22  BANK23  BANK24  BANK25  BANK26  BANK27  BANK28  BANK29  BANK30  BANK3
      +1  BANK32  BANK33  BANK34  BANK35  BANK36  BANK37
  4543 ;;      Params:         2       0       0       0       0       0       0       0       0       0       0       0       
      +0       0       0       0       0       0       0       0       0       0       0       0       0       0       0       
      +0       0       0       0       0       0       0
  4544 ;;      Locals:         0       0       0       0       0       0       0       0       0       0       0       0       
      +0       0       0       0       0       0       0       0       0       0       0       0       0       0       0       
      +0       0       0       0       0       0       0
  4545 ;;      Temps:          0       0       0       0       0       0       0       0       0       0       0       0       
      +0       0       0       0       0       0       0       0       0       0       0       0       0       0       0       
      +0       0       0       0       0       0       0
  4546 ;;      Totals:         2       0       0       0       0       0       0       0       0       0       0       0       
      +0       0       0       0       0       0       0       0       0       0       0       0       0       0       0       
      +0       0       0       0       0       0       0
  4547 ;;Total ram usage:        2 bytes
  4548 ;; Hardware stack levels used: 1
  4549 ;; Hardware stack levels required when called: 7
  4550 ;; This function calls:
  4551 ;;		_oledC_DrawCircle
  4552 ;; This function is called by:
  4553 ;;		_oledC_createShape
  4554 ;;		_oledC_redrawSome
  4555 ;;		_oledC_eraseShape
  4556 ;;		_oledC_redrawIndex
  4557 ;; This function uses a non-reentrant model
  4558 ;;
  4559                           
  4560                           	psect	text25
  4561  01157E                     __ptext25:
  4562                           	callstack 0
  4563  01157E                     _drawCircle:
  4564                           	callstack 117
  4565  01157E                     
  4566                           ;mcc_generated_files/oledC_shapes.c: 359: static void drawCircle(shape_t *shape);mcc_gen
      +                          erated_files/oledC_shapes.c: 360: {;mcc_generated_files/oledC_shapes.c: 361:     oledC_D
      +                          rawCircle(
  4567  01157E  EE20 F007          	lfsr	2,7
  4568  011582  503B               	movf	drawCircle@shape^(0+1280),w,c
  4569  011584  26D9               	addwf	fsr2l,f,c
  4570  011586  503C               	movf	(drawCircle@shape+1)^(0+1280),w,c
  4571  011588  22DA               	addwfc	fsr2h,f,c
  4572  01158A  50DF               	movf	indf2,w,c
  4573  01158C  6E18               	movwf	oledC_DrawCircle@y0^(0+1280),c
  4574  01158E  EE20 F008          	lfsr	2,8
  4575  011592  503B               	movf	drawCircle@shape^(0+1280),w,c
  4576  011594  26D9               	addwf	fsr2l,f,c
  4577  011596  503C               	movf	(drawCircle@shape+1)^(0+1280),w,c
  4578  011598  22DA               	addwfc	fsr2h,f,c
  4579  01159A  50DF               	movf	indf2,w,c
  4580  01159C  6E19               	movwf	oledC_DrawCircle@radius^(0+1280),c
  4581  01159E  EE20 F004          	lfsr	2,4
  4582  0115A2  503B               	movf	drawCircle@shape^(0+1280),w,c
  4583  0115A4  26D9               	addwf	fsr2l,f,c
  4584  0115A6  503C               	movf	(drawCircle@shape+1)^(0+1280),w,c
  4585  0115A8  22DA               	addwfc	fsr2h,f,c
  4586  0115AA  0061 F378  F51A    	movff	postinc2,oledC_DrawCircle@color
  4587  0115B0  0061 F374  F51B    	movff	postdec2,oledC_DrawCircle@color+1
  4588  0115B6  EE20 F006          	lfsr	2,6
  4589  0115BA  503B               	movf	drawCircle@shape^(0+1280),w,c
  4590  0115BC  26D9               	addwf	fsr2l,f,c
  4591  0115BE  503C               	movf	(drawCircle@shape+1)^(0+1280),w,c
  4592  0115C0  22DA               	addwfc	fsr2h,f,c
  4593  0115C2  50DF               	movf	indf2,w,c
  4594  0115C4  EC39  F081         	call	_oledC_DrawCircle
  4595  0115C8  0012               	return		;funcret
  4596  0115CA                     __end_of_drawCircle:
  4597                           	callstack 0
  4598                           
  4599 ;; *************** function _dummyshape *****************
  4600 ;; Defined at:
  4601 ;;		line 30 in file "mcc_generated_files/oledC_shapeHandler.c"
  4602 ;; Parameters:    Size  Location     Type
  4603 ;;  shape           2   58[COMRAM] PTR struct shape
  4604 ;;		 -> allParsedShapes(448), 
  4605 ;; Auto vars:     Size  Location     Type
  4606 ;;		None
  4607 ;; Return value:  Size  Location     Type
  4608 ;;                  1    wreg      void 
  4609 ;; Registers used:
  4610 ;;		None
  4611 ;; Tracked objects:
  4612 ;;		On entry : 0/0
  4613 ;;		On exit  : 0/0
  4614 ;;		Unchanged: 0/0
  4615 ;; Data sizes:     COMRAM   BANK5   BANK6   BANK7   BANK8   BANK9  BANK10  BANK11  BANK12  BANK13  BANK14  BANK15  BANK1
      +6  BANK17  BANK18  BANK19  BANK20  BANK21  BANK22  BANK23  BANK24  BANK25  BANK26  BANK27  BANK28  BANK29  BANK30  BANK3
      +1  BANK32  BANK33  BANK34  BANK35  BANK36  BANK37
  4616 ;;      Params:         2       0       0       0       0       0       0       0       0       0       0       0       
      +0       0       0       0       0       0       0       0       0       0       0       0       0       0       0       
      +0       0       0       0       0       0       0
  4617 ;;      Locals:         0       0       0       0       0       0       0       0       0       0       0       0       
      +0       0       0       0       0       0       0       0       0       0       0       0       0       0       0       
      +0       0       0       0       0       0       0
  4618 ;;      Temps:          0       0       0       0       0       0       0       0       0       0       0       0       
      +0       0       0       0       0       0       0       0       0       0       0       0       0       0       0       
      +0       0       0       0       0       0       0
  4619 ;;      Totals:         2       0       0       0       0       0       0       0       0       0       0       0       
      +0       0       0       0       0       0       0       0       0       0       0       0       0       0       0       
      +0       0       0       0       0       0       0
  4620 ;;Total ram usage:        2 bytes
  4621 ;; Hardware stack levels used: 1
  4622 ;; This function calls:
  4623 ;;		Nothing
  4624 ;; This function is called by:
  4625 ;;		_initShapesMem
  4626 ;;		_oledC_redrawSome
  4627 ;;		_oledC_eraseShape
  4628 ;;		_oledC_redrawIndex
  4629 ;; This function uses a non-reentrant model
  4630 ;;
  4631                           
  4632                           	psect	text26
  4633  011908                     __ptext26:
  4634                           	callstack 0
  4635  011908                     _dummyshape:
  4636                           	callstack 124
  4637  011908  0012               	return		;funcret
  4638  01190A                     __end_of_dummyshape:
  4639                           	callstack 0
  4640                           
  4641 ;; *************** function _oledC_DrawString *****************
  4642 ;; Defined at:
  4643 ;;		line 317 in file "mcc_generated_files/oledC_shapes.c"
  4644 ;; Parameters:    Size  Location     Type
  4645 ;;  x               1    wreg     unsigned char 
  4646 ;;  y               1   50[COMRAM] unsigned char 
  4647 ;;  sx              1   51[COMRAM] unsigned char 
  4648 ;;  sy              1   52[COMRAM] unsigned char 
  4649 ;;  string          2   53[COMRAM] PTR unsigned char 
  4650 ;;		 -> logo(92), 
  4651 ;;  color           2   55[COMRAM] unsigned short 
  4652 ;; Auto vars:     Size  Location     Type
  4653 ;;  x               1   57[COMRAM] unsigned char 
  4654 ;; Return value:  Size  Location     Type
  4655 ;;                  1    wreg      void 
  4656 ;; Registers used:
  4657 ;;		wreg, fsr2l, fsr2h, status,2, status,0, pclath, tosl, tblptrl, tblptrh, tblptru, prodl, prodh, cstack
  4658 ;; Tracked objects:
  4659 ;;		On entry : 0/0
  4660 ;;		On exit  : 0/0
  4661 ;;		Unchanged: 0/0
  4662 ;; Data sizes:     COMRAM   BANK5   BANK6   BANK7   BANK8   BANK9  BANK10  BANK11  BANK12  BANK13  BANK14  BANK15  BANK1
      +6  BANK17  BANK18  BANK19  BANK20  BANK21  BANK22  BANK23  BANK24  BANK25  BANK26  BANK27  BANK28  BANK29  BANK30  BANK3
      +1  BANK32  BANK33  BANK34  BANK35  BANK36  BANK37
  4663 ;;      Params:         7       0       0       0       0       0       0       0       0       0       0       0       
      +0       0       0       0       0       0       0       0       0       0       0       0       0       0       0       
      +0       0       0       0       0       0       0
  4664 ;;      Locals:         1       0       0       0       0       0       0       0       0       0       0       0       
      +0       0       0       0       0       0       0       0       0       0       0       0       0       0       0       
      +0       0       0       0       0       0       0
  4665 ;;      Temps:          0       0       0       0       0       0       0       0       0       0       0       0       
      +0       0       0       0       0       0       0       0       0       0       0       0       0       0       0       
      +0       0       0       0       0       0       0
  4666 ;;      Totals:         8       0       0       0       0       0       0       0       0       0       0       0       
      +0       0       0       0       0       0       0       0       0       0       0       0       0       0       0       
      +0       0       0       0       0       0       0
  4667 ;;Total ram usage:        8 bytes
  4668 ;; Hardware stack levels used: 1
  4669 ;; Hardware stack levels required when called: 7
  4670 ;; This function calls:
  4671 ;;		_oledC_DrawCharacter
  4672 ;; This function is called by:
  4673 ;;		_drawString
  4674 ;; This function uses a non-reentrant model
  4675 ;;
  4676                           
  4677                           	psect	text27
  4678  011250                     __ptext27:
  4679                           	callstack 0
  4680  011250                     _oledC_DrawString:
  4681                           	callstack 116
  4682                           
  4683                           ;incstack = 0
  4684                           ;oledC_DrawString@x stored from wreg
  4685  011250  6E3A               	movwf	oledC_DrawString@x^(0+1280),c
  4686  011252                     
  4687                           ;mcc_generated_files/oledC_shapes.c: 317: void oledC_DrawString(uint8_t x, uint8_t y, ui
      +                          nt8_t sx, uint8_t sy, uint8_t *string, uint16_t color);mcc_generated_files/oledC_shapes.
      +                          c: 318: {;mcc_generated_files/oledC_shapes.c: 319:     while(*string)
  4688  011252  EF4A  F089         	goto	l2895
  4689  011256                     l2889:
  4690                           
  4691                           ;mcc_generated_files/oledC_shapes.c: 320:     {;mcc_generated_files/oledC_shapes.c: 321:
      +                                   oledC_DrawCharacter(x, y, sx, sy, *string++, color);
  4692  011256  C533  F521         	movff	oledC_DrawString@y,oledC_DrawCharacter@y
  4693  01125A  C534  F522         	movff	oledC_DrawString@sx,oledC_DrawCharacter@sx
  4694  01125E  C535  F523         	movff	oledC_DrawString@sy,oledC_DrawCharacter@sy
  4695  011262  0061  F4D8  F4F6   	movff	oledC_DrawString@string,tblptrl
  4696  011268  0061  F4DC  F4F7   	movff	oledC_DrawString@string+1,tblptrh
  4697  01126E                     	if	0	;tblptru may be non-zero
  4698  01126E                     	endif
  4699  01126E                     	if	1	;Program memory is > 0xFFFF, there are 3 active tblptr bytes
  4700  01126E  0E00               	movlw	low (__mediumconst shr (0+16))
  4701  011270  6EF8               	movwf	tblptru,c
  4702  011272                     	endif
  4703  011272  0008               	tblrd		*
  4704  011274  0061 F3D4  F524    	movff	tablat,oledC_DrawCharacter@ch
  4705  01127A  C538  F525         	movff	oledC_DrawString@color,oledC_DrawCharacter@color
  4706  01127E  C539  F526         	movff	oledC_DrawString@color+1,oledC_DrawCharacter@color+1
  4707  011282  503A               	movf	oledC_DrawString@x^(0+1280),w,c
  4708  011284  EC5D  F084         	call	_oledC_DrawCharacter
  4709  011288  4A36               	infsnz	oledC_DrawString@string^(0+1280),f,c
  4710  01128A  2A37               	incf	(oledC_DrawString@string+1)^(0+1280),f,c
  4711  01128C                     
  4712                           ;mcc_generated_files/oledC_shapes.c: 322:         x += OLED_FONT_WIDTH * sx + 1;
  4713  01128C  5034               	movf	oledC_DrawString@sx^(0+1280),w,c
  4714  01128E  0D05               	mullw	5
  4715  011290  28F3               	incf	243,w,c
  4716  011292  263A               	addwf	oledC_DrawString@x^(0+1280),f,c
  4717  011294                     l2895:
  4718                           
  4719                           ;mcc_generated_files/oledC_shapes.c: 319:     while(*string)
  4720  011294  0061  F4D8  F4F6   	movff	oledC_DrawString@string,tblptrl
  4721  01129A  0061  F4DC  F4F7   	movff	oledC_DrawString@string+1,tblptrh
  4722  0112A0                     	if	0	;tblptru may be non-zero
  4723  0112A0                     	endif
  4724  0112A0                     	if	1	;Program memory is > 0xFFFF, there are 3 active tblptr bytes
  4725  0112A0  0E00               	movlw	low (__mediumconst shr (0+16))
  4726  0112A2  6EF8               	movwf	tblptru,c
  4727  0112A4                     	endif
  4728  0112A4  0008               	tblrd		*
  4729  0112A6  50F5               	movf	tablat,w,c
  4730  0112A8  0900               	iorlw	0
  4731  0112AA  A4D8               	btfss	status,2,c
  4732  0112AC  EF5A  F089         	goto	u1561
  4733  0112B0  EF5C  F089         	goto	u1560
  4734  0112B4                     u1561:
  4735  0112B4  EF2B  F089         	goto	l2889
  4736  0112B8                     u1560:
  4737  0112B8  0012               	return		;funcret
  4738  0112BA                     __end_of_oledC_DrawString:
  4739                           	callstack 0
  4740                           
  4741 ;; *************** function _oledC_DrawRing *****************
  4742 ;; Defined at:
  4743 ;;		line 215 in file "mcc_generated_files/oledC_shapes.c"
  4744 ;; Parameters:    Size  Location     Type
  4745 ;;  x0              1    wreg     unsigned char 
  4746 ;;  y0              1   23[COMRAM] unsigned char 
  4747 ;;  radius          1   24[COMRAM] unsigned char 
  4748 ;;  width           1   25[COMRAM] unsigned char 
  4749 ;;  color           2   26[COMRAM] unsigned short 
  4750 ;; Auto vars:     Size  Location     Type
  4751 ;;  x0              1   31[COMRAM] unsigned char 
  4752 ;;  d               2   29[COMRAM] short 
  4753 ;;  y               1   33[COMRAM] char 
  4754 ;;  x               1   32[COMRAM] char 
  4755 ;; Return value:  Size  Location     Type
  4756 ;;                  1    wreg      void 
  4757 ;; Registers used:
  4758 ;;		wreg, fsr2l, fsr2h, status,2, status,0, pclath, tosl, tblptrl, tblptrh, tblptru, prodl, prodh, cstack
  4759 ;; Tracked objects:
  4760 ;;		On entry : 0/0
  4761 ;;		On exit  : 0/0
  4762 ;;		Unchanged: 0/0
  4763 ;; Data sizes:     COMRAM   BANK5   BANK6   BANK7   BANK8   BANK9  BANK10  BANK11  BANK12  BANK13  BANK14  BANK15  BANK1
      +6  BANK17  BANK18  BANK19  BANK20  BANK21  BANK22  BANK23  BANK24  BANK25  BANK26  BANK27  BANK28  BANK29  BANK30  BANK3
      +1  BANK32  BANK33  BANK34  BANK35  BANK36  BANK37
  4764 ;;      Params:         5       0       0       0       0       0       0       0       0       0       0       0       
      +0       0       0       0       0       0       0       0       0       0       0       0       0       0       0       
      +0       0       0       0       0       0       0
  4765 ;;      Locals:         5       0       0       0       0       0       0       0       0       0       0       0       
      +0       0       0       0       0       0       0       0       0       0       0       0       0       0       0       
      +0       0       0       0       0       0       0
  4766 ;;      Temps:          1       0       0       0       0       0       0       0       0       0       0       0       
      +0       0       0       0       0       0       0       0       0       0       0       0       0       0       0       
      +0       0       0       0       0       0       0
  4767 ;;      Totals:        11       0       0       0       0       0       0       0       0       0       0       0       
      +0       0       0       0       0       0       0       0       0       0       0       0       0       0       0       
      +0       0       0       0       0       0       0
  4768 ;;Total ram usage:       11 bytes
  4769 ;; Hardware stack levels used: 1
  4770 ;; Hardware stack levels required when called: 6
  4771 ;; This function calls:
  4772 ;;		___wmul
  4773 ;;		_oledC_DrawPoint
  4774 ;; This function is called by:
  4775 ;;		_drawRing
  4776 ;; This function uses a non-reentrant model
  4777 ;;
  4778                           
  4779                           	psect	text28
  4780  010430                     __ptext28:
  4781                           	callstack 0
  4782  010430                     _oledC_DrawRing:
  4783                           	callstack 117
  4784                           
  4785                           ;incstack = 0
  4786                           ;oledC_DrawRing@x0 stored from wreg
  4787  010430  6E20               	movwf	oledC_DrawRing@x0^(0+1280),c
  4788  010432                     
  4789                           ;mcc_generated_files/oledC_shapes.c: 215: void oledC_DrawRing(uint8_t x0, uint8_t y0, ui
      +                          nt8_t radius, uint8_t width, uint16_t color);mcc_generated_files/oledC_shapes.c: 216: {;
      +                          mcc_generated_files/oledC_shapes.c: 217:     int8_t x, y;;mcc_generated_files/oledC_shap
      +                          es.c: 218:     int16_t d;;mcc_generated_files/oledC_shapes.c: 219:     radius += width >
      +                          > 1;
  4790  010432  90D8               	bcf	status,0,c
  4791  010434  301A               	rrcf	oledC_DrawRing@width^(0+1280),w,c
  4792  010436  2619               	addwf	oledC_DrawRing@radius^(0+1280),f,c
  4793                           
  4794                           ;mcc_generated_files/oledC_shapes.c: 220:     while(width-- > 0)
  4795  010438  EFBD  F082         	goto	l2849
  4796  01043C                     l104:
  4797                           
  4798                           ;mcc_generated_files/oledC_shapes.c: 221:     {;mcc_generated_files/oledC_shapes.c: 222:
      +                                   x = radius;
  4799  01043C  C519  F521         	movff	oledC_DrawRing@radius,oledC_DrawRing@x
  4800  010440                     
  4801                           ;mcc_generated_files/oledC_shapes.c: 223:         y = 0;
  4802  010440  0E00               	movlw	0
  4803  010442  6E22               	movwf	oledC_DrawRing@y^(0+1280),c
  4804                           
  4805                           ;mcc_generated_files/oledC_shapes.c: 224:         d = 0;
  4806  010444  0E00               	movlw	0
  4807  010446  6E1F               	movwf	(oledC_DrawRing@d+1)^(0+1280),c
  4808  010448  0E00               	movlw	0
  4809  01044A  6E1E               	movwf	oledC_DrawRing@d^(0+1280),c
  4810                           
  4811                           ;mcc_generated_files/oledC_shapes.c: 226:         while (x >= y)
  4812  01044C  EFAF  F082         	goto	l2845
  4813  010450                     l2833:
  4814                           
  4815                           ;mcc_generated_files/oledC_shapes.c: 227:         {;mcc_generated_files/oledC_shapes.c: 
      +                          228:             oledC_DrawPoint(x0 + x,y0 + y, color);
  4816  010450  5022               	movf	oledC_DrawRing@y^(0+1280),w,c
  4817  010452  2418               	addwf	oledC_DrawRing@y0^(0+1280),w,c
  4818  010454  6E14               	movwf	oledC_DrawPoint@y^(0+1280),c
  4819  010456  C51B  F515         	movff	oledC_DrawRing@color,oledC_DrawPoint@color
  4820  01045A  C51C  F516         	movff	oledC_DrawRing@color+1,oledC_DrawPoint@color+1
  4821  01045E  5021               	movf	oledC_DrawRing@x^(0+1280),w,c
  4822  010460  2420               	addwf	oledC_DrawRing@x0^(0+1280),w,c
  4823  010462  ECE5  F08A         	call	_oledC_DrawPoint
  4824                           
  4825                           ;mcc_generated_files/oledC_shapes.c: 229:             oledC_DrawPoint(x0 + x,y0 - y, col
      +                          or);
  4826  010466  5022               	movf	oledC_DrawRing@y^(0+1280),w,c
  4827  010468  5C18               	subwf	oledC_DrawRing@y0^(0+1280),w,c
  4828  01046A  6E14               	movwf	oledC_DrawPoint@y^(0+1280),c
  4829  01046C  C51B  F515         	movff	oledC_DrawRing@color,oledC_DrawPoint@color
  4830  010470  C51C  F516         	movff	oledC_DrawRing@color+1,oledC_DrawPoint@color+1
  4831  010474  5021               	movf	oledC_DrawRing@x^(0+1280),w,c
  4832  010476  2420               	addwf	oledC_DrawRing@x0^(0+1280),w,c
  4833  010478  ECE5  F08A         	call	_oledC_DrawPoint
  4834                           
  4835                           ;mcc_generated_files/oledC_shapes.c: 230:             oledC_DrawPoint(x0 - x,y0 + y, col
      +                          or);
  4836  01047C  5022               	movf	oledC_DrawRing@y^(0+1280),w,c
  4837  01047E  2418               	addwf	oledC_DrawRing@y0^(0+1280),w,c
  4838  010480  6E14               	movwf	oledC_DrawPoint@y^(0+1280),c
  4839  010482  C51B  F515         	movff	oledC_DrawRing@color,oledC_DrawPoint@color
  4840  010486  C51C  F516         	movff	oledC_DrawRing@color+1,oledC_DrawPoint@color+1
  4841  01048A  5021               	movf	oledC_DrawRing@x^(0+1280),w,c
  4842  01048C  5C20               	subwf	oledC_DrawRing@x0^(0+1280),w,c
  4843  01048E  ECE5  F08A         	call	_oledC_DrawPoint
  4844                           
  4845                           ;mcc_generated_files/oledC_shapes.c: 231:             oledC_DrawPoint(x0 - x,y0 - y, col
      +                          or);
  4846  010492  5022               	movf	oledC_DrawRing@y^(0+1280),w,c
  4847  010494  5C18               	subwf	oledC_DrawRing@y0^(0+1280),w,c
  4848  010496  6E14               	movwf	oledC_DrawPoint@y^(0+1280),c
  4849  010498  C51B  F515         	movff	oledC_DrawRing@color,oledC_DrawPoint@color
  4850  01049C  C51C  F516         	movff	oledC_DrawRing@color+1,oledC_DrawPoint@color+1
  4851  0104A0  5021               	movf	oledC_DrawRing@x^(0+1280),w,c
  4852  0104A2  5C20               	subwf	oledC_DrawRing@x0^(0+1280),w,c
  4853  0104A4  ECE5  F08A         	call	_oledC_DrawPoint
  4854                           
  4855                           ;mcc_generated_files/oledC_shapes.c: 232:             oledC_DrawPoint(x0 + y,y0 + x, col
      +                          or);
  4856  0104A8  5021               	movf	oledC_DrawRing@x^(0+1280),w,c
  4857  0104AA  2418               	addwf	oledC_DrawRing@y0^(0+1280),w,c
  4858  0104AC  6E14               	movwf	oledC_DrawPoint@y^(0+1280),c
  4859  0104AE  C51B  F515         	movff	oledC_DrawRing@color,oledC_DrawPoint@color
  4860  0104B2  C51C  F516         	movff	oledC_DrawRing@color+1,oledC_DrawPoint@color+1
  4861  0104B6  5022               	movf	oledC_DrawRing@y^(0+1280),w,c
  4862  0104B8  2420               	addwf	oledC_DrawRing@x0^(0+1280),w,c
  4863  0104BA  ECE5  F08A         	call	_oledC_DrawPoint
  4864                           
  4865                           ;mcc_generated_files/oledC_shapes.c: 233:             oledC_DrawPoint(x0 + y,y0 - x, col
      +                          or);
  4866  0104BE  5021               	movf	oledC_DrawRing@x^(0+1280),w,c
  4867  0104C0  5C18               	subwf	oledC_DrawRing@y0^(0+1280),w,c
  4868  0104C2  6E14               	movwf	oledC_DrawPoint@y^(0+1280),c
  4869  0104C4  C51B  F515         	movff	oledC_DrawRing@color,oledC_DrawPoint@color
  4870  0104C8  C51C  F516         	movff	oledC_DrawRing@color+1,oledC_DrawPoint@color+1
  4871  0104CC  5022               	movf	oledC_DrawRing@y^(0+1280),w,c
  4872  0104CE  2420               	addwf	oledC_DrawRing@x0^(0+1280),w,c
  4873  0104D0  ECE5  F08A         	call	_oledC_DrawPoint
  4874                           
  4875                           ;mcc_generated_files/oledC_shapes.c: 234:             oledC_DrawPoint(x0 - y,y0 + x, col
      +                          or);
  4876  0104D4  5021               	movf	oledC_DrawRing@x^(0+1280),w,c
  4877  0104D6  2418               	addwf	oledC_DrawRing@y0^(0+1280),w,c
  4878  0104D8  6E14               	movwf	oledC_DrawPoint@y^(0+1280),c
  4879  0104DA  C51B  F515         	movff	oledC_DrawRing@color,oledC_DrawPoint@color
  4880  0104DE  C51C  F516         	movff	oledC_DrawRing@color+1,oledC_DrawPoint@color+1
  4881  0104E2  5022               	movf	oledC_DrawRing@y^(0+1280),w,c
  4882  0104E4  5C20               	subwf	oledC_DrawRing@x0^(0+1280),w,c
  4883  0104E6  ECE5  F08A         	call	_oledC_DrawPoint
  4884                           
  4885                           ;mcc_generated_files/oledC_shapes.c: 235:             oledC_DrawPoint(x0 - y,y0 - x, col
      +                          or);
  4886  0104EA  5021               	movf	oledC_DrawRing@x^(0+1280),w,c
  4887  0104EC  5C18               	subwf	oledC_DrawRing@y0^(0+1280),w,c
  4888  0104EE  6E14               	movwf	oledC_DrawPoint@y^(0+1280),c
  4889  0104F0  C51B  F515         	movff	oledC_DrawRing@color,oledC_DrawPoint@color
  4890  0104F4  C51C  F516         	movff	oledC_DrawRing@color+1,oledC_DrawPoint@color+1
  4891  0104F8  5022               	movf	oledC_DrawRing@y^(0+1280),w,c
  4892  0104FA  5C20               	subwf	oledC_DrawRing@x0^(0+1280),w,c
  4893  0104FC  ECE5  F08A         	call	_oledC_DrawPoint
  4894  010500                     
  4895                           ;mcc_generated_files/oledC_shapes.c: 237:             d += (2*y+1);
  4896  010500  5022               	movf	oledC_DrawRing@y^(0+1280),w,c
  4897  010502  6E01               	movwf	___wmul@multiplier^(0+1280),c
  4898  010504  6A02               	clrf	(___wmul@multiplier+1)^(0+1280),c
  4899  010506  BE01               	btfsc	___wmul@multiplier^(0+1280),7,c
  4900  010508  0602               	decf	(___wmul@multiplier+1)^(0+1280),f,c
  4901  01050A  0E00               	movlw	0
  4902  01050C  6E04               	movwf	(___wmul@multiplicand+1)^(0+1280),c
  4903  01050E  0E02               	movlw	2
  4904  010510  6E03               	movwf	___wmul@multiplicand^(0+1280),c
  4905  010512  ECFE  F08B         	call	___wmul	;wreg free
  4906  010516  0E01               	movlw	1
  4907  010518  2601               	addwf	?___wmul^(0+1280),f,c
  4908  01051A  0E00               	movlw	0
  4909  01051C  2202               	addwfc	(?___wmul+1)^(0+1280),f,c
  4910  01051E  5001               	movf	?___wmul^(0+1280),w,c
  4911  010520  261E               	addwf	oledC_DrawRing@d^(0+1280),f,c
  4912  010522  5002               	movf	(?___wmul+1)^(0+1280),w,c
  4913  010524  221F               	addwfc	(oledC_DrawRing@d+1)^(0+1280),f,c
  4914  010526                     
  4915                           ;mcc_generated_files/oledC_shapes.c: 238:             y++;
  4916  010526  2A22               	incf	oledC_DrawRing@y^(0+1280),f,c
  4917  010528                     
  4918                           ;mcc_generated_files/oledC_shapes.c: 239:             if(d >= 0)
  4919  010528  BE1F               	btfsc	(oledC_DrawRing@d+1)^(0+1280),7,c
  4920  01052A  EF99  F082         	goto	u1471
  4921  01052E  EF9B  F082         	goto	u1470
  4922  010532                     u1471:
  4923  010532  EFAF  F082         	goto	l2845
  4924  010536                     u1470:
  4925  010536                     
  4926                           ;mcc_generated_files/oledC_shapes.c: 240:             {;mcc_generated_files/oledC_shapes
      +                          .c: 241:                 d += -2*x + 1;
  4927  010536  5021               	movf	oledC_DrawRing@x^(0+1280),w,c
  4928  010538  6E01               	movwf	___wmul@multiplier^(0+1280),c
  4929  01053A  6A02               	clrf	(___wmul@multiplier+1)^(0+1280),c
  4930  01053C  BE01               	btfsc	___wmul@multiplier^(0+1280),7,c
  4931  01053E  0602               	decf	(___wmul@multiplier+1)^(0+1280),f,c
  4932  010540  0EFF               	movlw	255
  4933  010542  6E04               	movwf	(___wmul@multiplicand+1)^(0+1280),c
  4934  010544  0EFE               	movlw	254
  4935  010546  6E03               	movwf	___wmul@multiplicand^(0+1280),c
  4936  010548  ECFE  F08B         	call	___wmul	;wreg free
  4937  01054C  0E01               	movlw	1
  4938  01054E  2601               	addwf	?___wmul^(0+1280),f,c
  4939  010550  0E00               	movlw	0
  4940  010552  2202               	addwfc	(?___wmul+1)^(0+1280),f,c
  4941  010554  5001               	movf	?___wmul^(0+1280),w,c
  4942  010556  261E               	addwf	oledC_DrawRing@d^(0+1280),f,c
  4943  010558  5002               	movf	(?___wmul+1)^(0+1280),w,c
  4944  01055A  221F               	addwfc	(oledC_DrawRing@d+1)^(0+1280),f,c
  4945  01055C                     
  4946                           ;mcc_generated_files/oledC_shapes.c: 242:                 x--;
  4947  01055C  0621               	decf	oledC_DrawRing@x^(0+1280),f,c
  4948  01055E                     l2845:
  4949                           
  4950                           ;mcc_generated_files/oledC_shapes.c: 226:         while (x >= y)
  4951  01055E  5021               	movf	oledC_DrawRing@x^(0+1280),w,c
  4952  010560  0A80               	xorlw	128
  4953  010562  6E1D               	movwf	??_oledC_DrawRing^(0+1280),c
  4954  010564  5022               	movf	oledC_DrawRing@y^(0+1280),w,c
  4955  010566  0A80               	xorlw	128
  4956  010568  5C1D               	subwf	??_oledC_DrawRing^(0+1280),w,c
  4957  01056A  B0D8               	btfsc	status,0,c
  4958  01056C  EFBA  F082         	goto	u1481
  4959  010570  EFBC  F082         	goto	u1480
  4960  010574                     u1481:
  4961  010574  EF28  F082         	goto	l2833
  4962  010578                     u1480:
  4963  010578                     
  4964                           ;mcc_generated_files/oledC_shapes.c: 245:         radius--;
  4965  010578  0619               	decf	oledC_DrawRing@radius^(0+1280),f,c
  4966  01057A                     l2849:
  4967                           
  4968                           ;mcc_generated_files/oledC_shapes.c: 220:     while(width-- > 0)
  4969  01057A  061A               	decf	oledC_DrawRing@width^(0+1280),f,c
  4970  01057C  281A               	incf	oledC_DrawRing@width^(0+1280),w,c
  4971  01057E  A4D8               	btfss	status,2,c
  4972  010580  EFC4  F082         	goto	u1491
  4973  010584  EFC6  F082         	goto	u1490
  4974  010588                     u1491:
  4975  010588  EF1E  F082         	goto	l104
  4976  01058C                     u1490:
  4977  01058C  0012               	return		;funcret
  4978  01058E                     __end_of_oledC_DrawRing:
  4979                           	callstack 0
  4980                           
  4981 ;; *************** function _oledC_DrawLine *****************
  4982 ;; Defined at:
  4983 ;;		line 249 in file "mcc_generated_files/oledC_shapes.c"
  4984 ;; Parameters:    Size  Location     Type
  4985 ;;  x0              1    wreg     unsigned char 
  4986 ;;  y0              1   37[COMRAM] unsigned char 
  4987 ;;  x1              1   38[COMRAM] unsigned char 
  4988 ;;  y1              1   39[COMRAM] unsigned char 
  4989 ;;  width           1   40[COMRAM] unsigned char 
  4990 ;;  color           2   41[COMRAM] unsigned short 
  4991 ;; Auto vars:     Size  Location     Type
  4992 ;;  x0              1   50[COMRAM] unsigned char 
  4993 ;;  y               1   55[COMRAM] char 
  4994 ;;  x               1   54[COMRAM] char 
  4995 ;;  D               1   53[COMRAM] char 
  4996 ;;  dy              1   52[COMRAM] char 
  4997 ;;  dx              1   51[COMRAM] char 
  4998 ;; Return value:  Size  Location     Type
  4999 ;;                  1    wreg      void 
  5000 ;; Registers used:
  5001 ;;		wreg, fsr2l, fsr2h, status,2, status,0, pclath, tosl, tblptrl, tblptrh, tblptru, prodl, prodh, cstack
  5002 ;; Tracked objects:
  5003 ;;		On entry : 0/0
  5004 ;;		On exit  : 0/0
  5005 ;;		Unchanged: 0/0
  5006 ;; Data sizes:     COMRAM   BANK5   BANK6   BANK7   BANK8   BANK9  BANK10  BANK11  BANK12  BANK13  BANK14  BANK15  BANK1
      +6  BANK17  BANK18  BANK19  BANK20  BANK21  BANK22  BANK23  BANK24  BANK25  BANK26  BANK27  BANK28  BANK29  BANK30  BANK3
      +1  BANK32  BANK33  BANK34  BANK35  BANK36  BANK37
  5007 ;;      Params:         6       0       0       0       0       0       0       0       0       0       0       0       
      +0       0       0       0       0       0       0       0       0       0       0       0       0       0       0       
      +0       0       0       0       0       0       0
  5008 ;;      Locals:         8       0       0       0       0       0       0       0       0       0       0       0       
      +0       0       0       0       0       0       0       0       0       0       0       0       0       0       0       
      +0       0       0       0       0       0       0
  5009 ;;      Temps:          5       0       0       0       0       0       0       0       0       0       0       0       
      +0       0       0       0       0       0       0       0       0       0       0       0       0       0       0       
      +0       0       0       0       0       0       0
  5010 ;;      Totals:        19       0       0       0       0       0       0       0       0       0       0       0       
      +0       0       0       0       0       0       0       0       0       0       0       0       0       0       0       
      +0       0       0       0       0       0       0
  5011 ;;Total ram usage:       19 bytes
  5012 ;; Hardware stack levels used: 1
  5013 ;; Hardware stack levels required when called: 7
  5014 ;; This function calls:
  5015 ;;		___awdiv
  5016 ;;		_oledC_DrawCircle
  5017 ;;		_oledC_DrawPoint
  5018 ;; This function is called by:
  5019 ;;		_drawLine
  5020 ;; This function uses a non-reentrant model
  5021 ;;
  5022                           
  5023                           	psect	text29
  5024  0106B6                     __ptext29:
  5025                           	callstack 0
  5026  0106B6                     _oledC_DrawLine:
  5027                           	callstack 116
  5028                           
  5029                           ;incstack = 0
  5030                           ;oledC_DrawLine@x0 stored from wreg
  5031  0106B6  6E33               	movwf	oledC_DrawLine@x0^(0+1280),c
  5032  0106B8                     
  5033                           ;mcc_generated_files/oledC_shapes.c: 249: void oledC_DrawLine(uint8_t x0, uint8_t y0, ui
      +                          nt8_t x1, uint8_t y1, uint8_t width, uint16_t color);mcc_generated_files/oledC_shapes.c:
      +                           250: {;mcc_generated_files/oledC_shapes.c: 251:     int8_t x, y;;mcc_generated_files/ol
      +                          edC_shapes.c: 252:     int8_t dx, dy, D;;mcc_generated_files/oledC_shapes.c: 253:     wi
      +                          dth = width <= 1 ? 1 : width;
  5034  0106B8  0E01               	movlw	1
  5035  0106BA  6429               	cpfsgt	oledC_DrawLine@width^(0+1280),c
  5036  0106BC  EF62  F083         	goto	u1501
  5037  0106C0  EF64  F083         	goto	u1500
  5038  0106C4                     u1501:
  5039  0106C4  EF69  F083         	goto	l2855
  5040  0106C8                     u1500:
  5041  0106C8  C529  F531         	movff	oledC_DrawLine@width,_oledC_DrawLine$322
  5042  0106CC  6A32               	clrf	(_oledC_DrawLine$322+1)^(0+1280),c
  5043  0106CE  EF6D  F083         	goto	l2857
  5044  0106D2                     l2855:
  5045  0106D2  0E00               	movlw	0
  5046  0106D4  6E32               	movwf	(_oledC_DrawLine$322+1)^(0+1280),c
  5047  0106D6  0E01               	movlw	1
  5048  0106D8  6E31               	movwf	_oledC_DrawLine$322^(0+1280),c
  5049  0106DA                     l2857:
  5050  0106DA  C531  F529         	movff	_oledC_DrawLine$322,oledC_DrawLine@width
  5051  0106DE                     
  5052                           ;mcc_generated_files/oledC_shapes.c: 255:     dx = x1 - x0;
  5053  0106DE  5033               	movf	oledC_DrawLine@x0^(0+1280),w,c
  5054  0106E0  5C27               	subwf	oledC_DrawLine@x1^(0+1280),w,c
  5055  0106E2  6E34               	movwf	oledC_DrawLine@dx^(0+1280),c
  5056  0106E4                     
  5057                           ;mcc_generated_files/oledC_shapes.c: 256:     dy = y1 - y0;
  5058  0106E4  5026               	movf	oledC_DrawLine@y0^(0+1280),w,c
  5059  0106E6  5C28               	subwf	oledC_DrawLine@y1^(0+1280),w,c
  5060  0106E8  6E35               	movwf	oledC_DrawLine@dy^(0+1280),c
  5061  0106EA                     
  5062                           ;mcc_generated_files/oledC_shapes.c: 257:     D = dy - dx;
  5063  0106EA  5034               	movf	oledC_DrawLine@dx^(0+1280),w,c
  5064  0106EC  5C35               	subwf	oledC_DrawLine@dy^(0+1280),w,c
  5065  0106EE  6E36               	movwf	oledC_DrawLine@D^(0+1280),c
  5066  0106F0                     
  5067                           ;mcc_generated_files/oledC_shapes.c: 258:     y = y0;
  5068  0106F0  C526  F538         	movff	oledC_DrawLine@y0,oledC_DrawLine@y
  5069  0106F4                     
  5070                           ;mcc_generated_files/oledC_shapes.c: 260:     for(x = x0; x < x1; x++)
  5071  0106F4  C533  F537         	movff	oledC_DrawLine@x0,oledC_DrawLine@x
  5072  0106F8  EFC9  F083         	goto	l2885
  5073  0106FC                     l2869:
  5074                           
  5075                           ;mcc_generated_files/oledC_shapes.c: 261:     {;mcc_generated_files/oledC_shapes.c: 262:
      +                                   if(x <= OLED_DIM_WIDTH && y <= OLED_DIM_HEIGHT)
  5076  0106FC  5037               	movf	oledC_DrawLine@x^(0+1280),w,c
  5077  0106FE  0A80               	xorlw	128
  5078  010700  0F20               	addlw	-224
  5079  010702  B0D8               	btfsc	status,0,c
  5080  010704  EF86  F083         	goto	u1511
  5081  010708  EF88  F083         	goto	u1510
  5082  01070C                     u1511:
  5083  01070C  EFB9  F083         	goto	l2879
  5084  010710                     u1510:
  5085  010710  5038               	movf	oledC_DrawLine@y^(0+1280),w,c
  5086  010712  0A80               	xorlw	128
  5087  010714  0F20               	addlw	-224
  5088  010716  B0D8               	btfsc	status,0,c
  5089  010718  EF90  F083         	goto	u1521
  5090  01071C  EF92  F083         	goto	u1520
  5091  010720                     u1521:
  5092  010720  EFB9  F083         	goto	l2879
  5093  010724                     u1520:
  5094  010724                     
  5095                           ;mcc_generated_files/oledC_shapes.c: 263:         {;mcc_generated_files/oledC_shapes.c: 
      +                          264:             if(width <= 1)
  5096  010724  0E02               	movlw	2
  5097  010726  6029               	cpfslt	oledC_DrawLine@width^(0+1280),c
  5098  010728  EF98  F083         	goto	u1531
  5099  01072C  EF9A  F083         	goto	u1530
  5100  010730                     u1531:
  5101  010730  EFA5  F083         	goto	l2877
  5102  010734                     u1530:
  5103  010734                     
  5104                           ;mcc_generated_files/oledC_shapes.c: 265:             {;mcc_generated_files/oledC_shapes
      +                          .c: 266:                 oledC_DrawPoint(x,y, color);
  5105  010734  C538  F514         	movff	oledC_DrawLine@y,oledC_DrawPoint@y
  5106  010738  C52A  F515         	movff	oledC_DrawLine@color,oledC_DrawPoint@color
  5107  01073C  C52B  F516         	movff	oledC_DrawLine@color+1,oledC_DrawPoint@color+1
  5108  010740  5037               	movf	oledC_DrawLine@x^(0+1280),w,c
  5109  010742  ECE5  F08A         	call	_oledC_DrawPoint
  5110                           
  5111                           ;mcc_generated_files/oledC_shapes.c: 267:             }
  5112  010746  EFB9  F083         	goto	l2879
  5113  01074A                     l2877:
  5114                           
  5115                           ;mcc_generated_files/oledC_shapes.c: 269:             {;mcc_generated_files/oledC_shapes
      +                          .c: 270:                 oledC_DrawCircle(x, y, width/2, color);
  5116  01074A  C538  F518         	movff	oledC_DrawLine@y,oledC_DrawCircle@y0
  5117  01074E  C529  F501         	movff	oledC_DrawLine@width,___awdiv@dividend
  5118  010752  6A02               	clrf	(___awdiv@dividend+1)^(0+1280),c
  5119  010754  0E00               	movlw	0
  5120  010756  6E04               	movwf	(___awdiv@divisor+1)^(0+1280),c
  5121  010758  0E02               	movlw	2
  5122  01075A  6E03               	movwf	___awdiv@divisor^(0+1280),c
  5123  01075C  ECB4  F085         	call	___awdiv	;wreg free
  5124  010760  5001               	movf	?___awdiv^(0+1280),w,c
  5125  010762  6E19               	movwf	oledC_DrawCircle@radius^(0+1280),c
  5126  010764  C52A  F51A         	movff	oledC_DrawLine@color,oledC_DrawCircle@color
  5127  010768  C52B  F51B         	movff	oledC_DrawLine@color+1,oledC_DrawCircle@color+1
  5128  01076C  5037               	movf	oledC_DrawLine@x^(0+1280),w,c
  5129  01076E  EC39  F081         	call	_oledC_DrawCircle
  5130  010772                     l2879:
  5131                           
  5132                           ;mcc_generated_files/oledC_shapes.c: 273:         if(D >= 0)
  5133  010772  BE36               	btfsc	oledC_DrawLine@D^(0+1280),7,c
  5134  010774  EFBE  F083         	goto	u1541
  5135  010778  EFC0  F083         	goto	u1540
  5136  01077C                     u1541:
  5137  01077C  EFC5  F083         	goto	l122
  5138  010780                     u1540:
  5139  010780                     
  5140                           ;mcc_generated_files/oledC_shapes.c: 274:         {;mcc_generated_files/oledC_shapes.c: 
      +                          275:             y = y+1;
  5141  010780  2838               	incf	oledC_DrawLine@y^(0+1280),w,c
  5142  010782  6E38               	movwf	oledC_DrawLine@y^(0+1280),c
  5143                           
  5144                           ;mcc_generated_files/oledC_shapes.c: 276:             D = D - dx;
  5145  010784  5034               	movf	oledC_DrawLine@dx^(0+1280),w,c
  5146  010786  5C36               	subwf	oledC_DrawLine@D^(0+1280),w,c
  5147  010788  6E36               	movwf	oledC_DrawLine@D^(0+1280),c
  5148  01078A                     l122:
  5149                           
  5150                           ;mcc_generated_files/oledC_shapes.c: 278:         D = D + dy;
  5151  01078A  5036               	movf	oledC_DrawLine@D^(0+1280),w,c
  5152  01078C  2435               	addwf	oledC_DrawLine@dy^(0+1280),w,c
  5153  01078E  6E36               	movwf	oledC_DrawLine@D^(0+1280),c
  5154  010790                     
  5155                           ;mcc_generated_files/oledC_shapes.c: 279:     }
  5156  010790  2A37               	incf	oledC_DrawLine@x^(0+1280),f,c
  5157  010792                     l2885:
  5158  010792  5027               	movf	oledC_DrawLine@x1^(0+1280),w,c
  5159  010794  6E2C               	movwf	??_oledC_DrawLine^(0+1280),c
  5160  010796  6A2D               	clrf	(??_oledC_DrawLine+1)^(0+1280),c
  5161  010798  C537  F52E         	movff	oledC_DrawLine@x,??_oledC_DrawLine+2
  5162  01079C  6A2F               	clrf	(??_oledC_DrawLine+3)^(0+1280),c
  5163  01079E  BE2E               	btfsc	(??_oledC_DrawLine+2)^(0+1280),7,c
  5164  0107A0  062F               	decf	(??_oledC_DrawLine+3)^(0+1280),f,c
  5165  0107A2  502C               	movf	??_oledC_DrawLine^(0+1280),w,c
  5166  0107A4  5C2E               	subwf	(??_oledC_DrawLine+2)^(0+1280),w,c
  5167  0107A6  502F               	movf	(??_oledC_DrawLine+3)^(0+1280),w,c
  5168  0107A8  0A80               	xorlw	128
  5169  0107AA  6E30               	movwf	(??_oledC_DrawLine+4)^(0+1280),c
  5170  0107AC  502D               	movf	(??_oledC_DrawLine+1)^(0+1280),w,c
  5171  0107AE  0A80               	xorlw	128
  5172  0107B0  5830               	subwfb	(??_oledC_DrawLine+4)^(0+1280),w,c
  5173  0107B2  A0D8               	btfss	status,0,c
  5174  0107B4  EFDE  F083         	goto	u1551
  5175  0107B8  EFE0  F083         	goto	u1550
  5176  0107BC                     u1551:
  5177  0107BC  EF7E  F083         	goto	l2869
  5178  0107C0                     u1550:
  5179  0107C0  0012               	return		;funcret
  5180  0107C2                     __end_of_oledC_DrawLine:
  5181                           	callstack 0
  5182                           
  5183 ;; *************** function ___awdiv *****************
  5184 ;; Defined at:
  5185 ;;		line 7 in file "C:\Program Files\Microchip\xc8\v2.32\pic\sources\c99\common\awdiv.c"
  5186 ;; Parameters:    Size  Location     Type
  5187 ;;  dividend        2    0[COMRAM] int 
  5188 ;;  divisor         2    2[COMRAM] int 
  5189 ;; Auto vars:     Size  Location     Type
  5190 ;;  quotient        2    6[COMRAM] int 
  5191 ;;  sign            1    5[COMRAM] unsigned char 
  5192 ;;  counter         1    4[COMRAM] unsigned char 
  5193 ;; Return value:  Size  Location     Type
  5194 ;;                  2    0[COMRAM] int 
  5195 ;; Registers used:
  5196 ;;		wreg, status,2, status,0
  5197 ;; Tracked objects:
  5198 ;;		On entry : 0/0
  5199 ;;		On exit  : 0/0
  5200 ;;		Unchanged: 0/0
  5201 ;; Data sizes:     COMRAM   BANK5   BANK6   BANK7   BANK8   BANK9  BANK10  BANK11  BANK12  BANK13  BANK14  BANK15  BANK1
      +6  BANK17  BANK18  BANK19  BANK20  BANK21  BANK22  BANK23  BANK24  BANK25  BANK26  BANK27  BANK28  BANK29  BANK30  BANK3
      +1  BANK32  BANK33  BANK34  BANK35  BANK36  BANK37
  5202 ;;      Params:         4       0       0       0       0       0       0       0       0       0       0       0       
      +0       0       0       0       0       0       0       0       0       0       0       0       0       0       0       
      +0       0       0       0       0       0       0
  5203 ;;      Locals:         4       0       0       0       0       0       0       0       0       0       0       0       
      +0       0       0       0       0       0       0       0       0       0       0       0       0       0       0       
      +0       0       0       0       0       0       0
  5204 ;;      Temps:          0       0       0       0       0       0       0       0       0       0       0       0       
      +0       0       0       0       0       0       0       0       0       0       0       0       0       0       0       
      +0       0       0       0       0       0       0
  5205 ;;      Totals:         8       0       0       0       0       0       0       0       0       0       0       0       
      +0       0       0       0       0       0       0       0       0       0       0       0       0       0       0       
      +0       0       0       0       0       0       0
  5206 ;;Total ram usage:        8 bytes
  5207 ;; Hardware stack levels used: 1
  5208 ;; This function calls:
  5209 ;;		Nothing
  5210 ;; This function is called by:
  5211 ;;		_oledC_DrawLine
  5212 ;; This function uses a non-reentrant model
  5213 ;;
  5214                           
  5215                           	psect	text30
  5216  010B68                     __ptext30:
  5217                           	callstack 0
  5218  010B68                     ___awdiv:
  5219                           	callstack 122
  5220  010B68  0E00               	movlw	0
  5221  010B6A  6E06               	movwf	___awdiv@sign^(0+1280),c
  5222  010B6C  BE04               	btfsc	(___awdiv@divisor+1)^(0+1280),7,c
  5223  010B6E  EFBD  F085         	goto	u1410
  5224  010B72  EFBB  F085         	goto	u1411
  5225  010B76                     u1411:
  5226  010B76  EFC3  F085         	goto	l2793
  5227  010B7A                     u1410:
  5228  010B7A  6C03               	negf	___awdiv@divisor^(0+1280),c
  5229  010B7C  1E04               	comf	(___awdiv@divisor+1)^(0+1280),f,c
  5230  010B7E  B0D8               	btfsc	status,0,c
  5231  010B80  2A04               	incf	(___awdiv@divisor+1)^(0+1280),f,c
  5232  010B82  0E01               	movlw	1
  5233  010B84  6E06               	movwf	___awdiv@sign^(0+1280),c
  5234  010B86                     l2793:
  5235  010B86  BE02               	btfsc	(___awdiv@dividend+1)^(0+1280),7,c
  5236  010B88  EFCA  F085         	goto	u1420
  5237  010B8C  EFC8  F085         	goto	u1421
  5238  010B90                     u1421:
  5239  010B90  EFD0  F085         	goto	l2799
  5240  010B94                     u1420:
  5241  010B94  6C01               	negf	___awdiv@dividend^(0+1280),c
  5242  010B96  1E02               	comf	(___awdiv@dividend+1)^(0+1280),f,c
  5243  010B98  B0D8               	btfsc	status,0,c
  5244  010B9A  2A02               	incf	(___awdiv@dividend+1)^(0+1280),f,c
  5245  010B9C  0E01               	movlw	1
  5246  010B9E  1A06               	xorwf	___awdiv@sign^(0+1280),f,c
  5247  010BA0                     l2799:
  5248  010BA0  0E00               	movlw	0
  5249  010BA2  6E08               	movwf	(___awdiv@quotient+1)^(0+1280),c
  5250  010BA4  0E00               	movlw	0
  5251  010BA6  6E07               	movwf	___awdiv@quotient^(0+1280),c
  5252  010BA8  5003               	movf	___awdiv@divisor^(0+1280),w,c
  5253  010BAA  1004               	iorwf	(___awdiv@divisor+1)^(0+1280),w,c
  5254  010BAC  B4D8               	btfsc	status,2,c
  5255  010BAE  EFDB  F085         	goto	u1431
  5256  010BB2  EFDD  F085         	goto	u1430
  5257  010BB6                     u1431:
  5258  010BB6  EF05  F086         	goto	l2821
  5259  010BBA                     u1430:
  5260  010BBA  0E01               	movlw	1
  5261  010BBC  6E05               	movwf	___awdiv@counter^(0+1280),c
  5262  010BBE  EFE5  F085         	goto	l2807
  5263  010BC2                     l2805:
  5264  010BC2  90D8               	bcf	status,0,c
  5265  010BC4  3603               	rlcf	___awdiv@divisor^(0+1280),f,c
  5266  010BC6  3604               	rlcf	(___awdiv@divisor+1)^(0+1280),f,c
  5267  010BC8  2A05               	incf	___awdiv@counter^(0+1280),f,c
  5268  010BCA                     l2807:
  5269  010BCA  AE04               	btfss	(___awdiv@divisor+1)^(0+1280),7,c
  5270  010BCC  EFEA  F085         	goto	u1441
  5271  010BD0  EFEC  F085         	goto	u1440
  5272  010BD4                     u1441:
  5273  010BD4  EFE1  F085         	goto	l2805
  5274  010BD8                     u1440:
  5275  010BD8                     l2809:
  5276  010BD8  90D8               	bcf	status,0,c
  5277  010BDA  3607               	rlcf	___awdiv@quotient^(0+1280),f,c
  5278  010BDC  3608               	rlcf	(___awdiv@quotient+1)^(0+1280),f,c
  5279  010BDE  5003               	movf	___awdiv@divisor^(0+1280),w,c
  5280  010BE0  5C01               	subwf	___awdiv@dividend^(0+1280),w,c
  5281  010BE2  5004               	movf	(___awdiv@divisor+1)^(0+1280),w,c
  5282  010BE4  5802               	subwfb	(___awdiv@dividend+1)^(0+1280),w,c
  5283  010BE6  A0D8               	btfss	status,0,c
  5284  010BE8  EFF8  F085         	goto	u1451
  5285  010BEC  EFFA  F085         	goto	u1450
  5286  010BF0                     u1451:
  5287  010BF0  EFFF  F085         	goto	l2817
  5288  010BF4                     u1450:
  5289  010BF4  5003               	movf	___awdiv@divisor^(0+1280),w,c
  5290  010BF6  5E01               	subwf	___awdiv@dividend^(0+1280),f,c
  5291  010BF8  5004               	movf	(___awdiv@divisor+1)^(0+1280),w,c
  5292  010BFA  5A02               	subwfb	(___awdiv@dividend+1)^(0+1280),f,c
  5293  010BFC  8007               	bsf	___awdiv@quotient^(0+1280),0,c
  5294  010BFE                     l2817:
  5295  010BFE  90D8               	bcf	status,0,c
  5296  010C00  3204               	rrcf	(___awdiv@divisor+1)^(0+1280),f,c
  5297  010C02  3203               	rrcf	___awdiv@divisor^(0+1280),f,c
  5298  010C04  2E05               	decfsz	___awdiv@counter^(0+1280),f,c
  5299  010C06  EFEC  F085         	goto	l2809
  5300  010C0A                     l2821:
  5301  010C0A  5006               	movf	___awdiv@sign^(0+1280),w,c
  5302  010C0C  B4D8               	btfsc	status,2,c
  5303  010C0E  EF0B  F086         	goto	u1461
  5304  010C12  EF0D  F086         	goto	u1460
  5305  010C16                     u1461:
  5306  010C16  EF11  F086         	goto	l2825
  5307  010C1A                     u1460:
  5308  010C1A  6C07               	negf	___awdiv@quotient^(0+1280),c
  5309  010C1C  1E08               	comf	(___awdiv@quotient+1)^(0+1280),f,c
  5310  010C1E  B0D8               	btfsc	status,0,c
  5311  010C20  2A08               	incf	(___awdiv@quotient+1)^(0+1280),f,c
  5312  010C22                     l2825:
  5313  010C22  C507  F501         	movff	___awdiv@quotient,?___awdiv
  5314  010C26  C508  F502         	movff	___awdiv@quotient+1,?___awdiv+1
  5315  010C2A  0012               	return		;funcret
  5316  010C2C                     __end_of___awdiv:
  5317                           	callstack 0
  5318                           
  5319 ;; *************** function _oledC_DrawCircle *****************
  5320 ;; Defined at:
  5321 ;;		line 178 in file "mcc_generated_files/oledC_shapes.c"
  5322 ;; Parameters:    Size  Location     Type
  5323 ;;  x0              1    wreg     unsigned char 
  5324 ;;  y0              1   23[COMRAM] unsigned char 
  5325 ;;  radius          1   24[COMRAM] unsigned char 
  5326 ;;  color           2   25[COMRAM] unsigned short 
  5327 ;; Auto vars:     Size  Location     Type
  5328 ;;  x0              1   34[COMRAM] unsigned char 
  5329 ;;  d               2   30[COMRAM] short 
  5330 ;;  y               1   36[COMRAM] char 
  5331 ;;  x               1   35[COMRAM] char 
  5332 ;;  yMax            1   33[COMRAM] char 
  5333 ;;  xCurr           1   32[COMRAM] char 
  5334 ;; Return value:  Size  Location     Type
  5335 ;;                  1    wreg      void 
  5336 ;; Registers used:
  5337 ;;		wreg, fsr2l, fsr2h, status,2, status,0, pclath, tosl, tblptrl, tblptrh, tblptru, prodl, prodh, cstack
  5338 ;; Tracked objects:
  5339 ;;		On entry : 0/0
  5340 ;;		On exit  : 0/0
  5341 ;;		Unchanged: 0/0
  5342 ;; Data sizes:     COMRAM   BANK5   BANK6   BANK7   BANK8   BANK9  BANK10  BANK11  BANK12  BANK13  BANK14  BANK15  BANK1
      +6  BANK17  BANK18  BANK19  BANK20  BANK21  BANK22  BANK23  BANK24  BANK25  BANK26  BANK27  BANK28  BANK29  BANK30  BANK3
      +1  BANK32  BANK33  BANK34  BANK35  BANK36  BANK37
  5343 ;;      Params:         4       0       0       0       0       0       0       0       0       0       0       0       
      +0       0       0       0       0       0       0       0       0       0       0       0       0       0       0       
      +0       0       0       0       0       0       0
  5344 ;;      Locals:         9       0       0       0       0       0       0       0       0       0       0       0       
      +0       0       0       0       0       0       0       0       0       0       0       0       0       0       0       
      +0       0       0       0       0       0       0
  5345 ;;      Temps:          1       0       0       0       0       0       0       0       0       0       0       0       
      +0       0       0       0       0       0       0       0       0       0       0       0       0       0       0       
      +0       0       0       0       0       0       0
  5346 ;;      Totals:        14       0       0       0       0       0       0       0       0       0       0       0       
      +0       0       0       0       0       0       0       0       0       0       0       0       0       0       0       
      +0       0       0       0       0       0       0
  5347 ;;Total ram usage:       14 bytes
  5348 ;; Hardware stack levels used: 1
  5349 ;; Hardware stack levels required when called: 6
  5350 ;; This function calls:
  5351 ;;		___wmul
  5352 ;;		_oledC_DrawPoint
  5353 ;; This function is called by:
  5354 ;;		_oledC_DrawLine
  5355 ;;		_drawCircle
  5356 ;; This function uses a non-reentrant model
  5357 ;;
  5358                           
  5359                           	psect	text31
  5360  010272                     __ptext31:
  5361                           	callstack 0
  5362  010272                     _oledC_DrawCircle:
  5363                           	callstack 116
  5364                           
  5365                           ;incstack = 0
  5366                           ;oledC_DrawCircle@x0 stored from wreg
  5367  010272  6E23               	movwf	oledC_DrawCircle@x0^(0+1280),c
  5368  010274  0E00               	movlw	0
  5369  010276  6E25               	movwf	oledC_DrawCircle@y^(0+1280),c
  5370  010278  0E00               	movlw	0
  5371  01027A  6E24               	movwf	oledC_DrawCircle@x^(0+1280),c
  5372                           
  5373                           ;mcc_generated_files/oledC_shapes.c: 181:     int16_t d = 0;
  5374  01027C  0E00               	movlw	0
  5375  01027E  6E20               	movwf	(oledC_DrawCircle@d+1)^(0+1280),c
  5376  010280  0E00               	movlw	0
  5377  010282  6E1F               	movwf	oledC_DrawCircle@d^(0+1280),c
  5378  010284                     
  5379                           ;mcc_generated_files/oledC_shapes.c: 183:     radius = radius <= 1 ? 1 : radius;
  5380  010284  0E01               	movlw	1
  5381  010286  6419               	cpfsgt	oledC_DrawCircle@radius^(0+1280),c
  5382  010288  EF48  F081         	goto	u1331
  5383  01028C  EF4A  F081         	goto	u1330
  5384  010290                     u1331:
  5385  010290  EF4F  F081         	goto	l2723
  5386  010294                     u1330:
  5387  010294  C519  F51D         	movff	oledC_DrawCircle@radius,_oledC_DrawCircle$300
  5388  010298  6A1E               	clrf	(_oledC_DrawCircle$300+1)^(0+1280),c
  5389  01029A  EF53  F081         	goto	l2725
  5390  01029E                     l2723:
  5391  01029E  0E00               	movlw	0
  5392  0102A0  6E1E               	movwf	(_oledC_DrawCircle$300+1)^(0+1280),c
  5393  0102A2  0E01               	movlw	1
  5394  0102A4  6E1D               	movwf	_oledC_DrawCircle$300^(0+1280),c
  5395  0102A6                     l2725:
  5396  0102A6  C51D  F519         	movff	_oledC_DrawCircle$300,oledC_DrawCircle@radius
  5397  0102AA                     
  5398                           ;mcc_generated_files/oledC_shapes.c: 184:     xCurr = radius+1;
  5399  0102AA  2819               	incf	oledC_DrawCircle@radius^(0+1280),w,c
  5400  0102AC  6E21               	movwf	oledC_DrawCircle@xCurr^(0+1280),c
  5401  0102AE                     
  5402                           ;mcc_generated_files/oledC_shapes.c: 185:     yMax = 0;
  5403  0102AE  0E00               	movlw	0
  5404  0102B0  6E22               	movwf	oledC_DrawCircle@yMax^(0+1280),c
  5405  0102B2                     
  5406                           ;mcc_generated_files/oledC_shapes.c: 186:     y = 0;
  5407  0102B2  0E00               	movlw	0
  5408  0102B4  6E25               	movwf	oledC_DrawCircle@y^(0+1280),c
  5409  0102B6                     
  5410                           ;mcc_generated_files/oledC_shapes.c: 187:     d = 0;
  5411  0102B6  0E00               	movlw	0
  5412  0102B8  6E20               	movwf	(oledC_DrawCircle@d+1)^(0+1280),c
  5413  0102BA  0E00               	movlw	0
  5414  0102BC  6E1F               	movwf	oledC_DrawCircle@d^(0+1280),c
  5415                           
  5416                           ;mcc_generated_files/oledC_shapes.c: 189:     while (xCurr >= yMax)
  5417  0102BE  EF0A  F082         	goto	l2757
  5418  0102C2                     l2735:
  5419                           
  5420                           ;mcc_generated_files/oledC_shapes.c: 190:     {;mcc_generated_files/oledC_shapes.c: 191:
      +                                   d += (2*yMax+1);
  5421  0102C2  5022               	movf	oledC_DrawCircle@yMax^(0+1280),w,c
  5422  0102C4  6E01               	movwf	___wmul@multiplier^(0+1280),c
  5423  0102C6  6A02               	clrf	(___wmul@multiplier+1)^(0+1280),c
  5424  0102C8  BE01               	btfsc	___wmul@multiplier^(0+1280),7,c
  5425  0102CA  0602               	decf	(___wmul@multiplier+1)^(0+1280),f,c
  5426  0102CC  0E00               	movlw	0
  5427  0102CE  6E04               	movwf	(___wmul@multiplicand+1)^(0+1280),c
  5428  0102D0  0E02               	movlw	2
  5429  0102D2  6E03               	movwf	___wmul@multiplicand^(0+1280),c
  5430  0102D4  ECFE  F08B         	call	___wmul	;wreg free
  5431  0102D8  0E01               	movlw	1
  5432  0102DA  2601               	addwf	?___wmul^(0+1280),f,c
  5433  0102DC  0E00               	movlw	0
  5434  0102DE  2202               	addwfc	(?___wmul+1)^(0+1280),f,c
  5435  0102E0  5001               	movf	?___wmul^(0+1280),w,c
  5436  0102E2  261F               	addwf	oledC_DrawCircle@d^(0+1280),f,c
  5437  0102E4  5002               	movf	(?___wmul+1)^(0+1280),w,c
  5438  0102E6  2220               	addwfc	(oledC_DrawCircle@d+1)^(0+1280),f,c
  5439  0102E8                     
  5440                           ;mcc_generated_files/oledC_shapes.c: 192:         yMax++;
  5441  0102E8  2A22               	incf	oledC_DrawCircle@yMax^(0+1280),f,c
  5442  0102EA                     
  5443                           ;mcc_generated_files/oledC_shapes.c: 193:         if(d >= 0)
  5444  0102EA  BE20               	btfsc	(oledC_DrawCircle@d+1)^(0+1280),7,c
  5445  0102EC  EF7A  F081         	goto	u1341
  5446  0102F0  EF7C  F081         	goto	u1340
  5447  0102F4                     u1341:
  5448  0102F4  EF0A  F082         	goto	l2757
  5449  0102F8                     u1340:
  5450  0102F8  EFE9  F081         	goto	l2751
  5451  0102FC                     l94:
  5452                           
  5453                           ;mcc_generated_files/oledC_shapes.c: 196:             {;mcc_generated_files/oledC_shapes
      +                          .c: 197:                 for(x = y; x < xCurr; x++)
  5454  0102FC  C525  F524         	movff	oledC_DrawCircle@y,oledC_DrawCircle@x
  5455  010300  EFDB  F081         	goto	l2747
  5456  010304                     l2743:
  5457                           
  5458                           ;mcc_generated_files/oledC_shapes.c: 198:                 {;mcc_generated_files/oledC_sh
      +                          apes.c: 199:                     oledC_DrawPoint(x0 + x,y0 + y, color);
  5459  010304  5025               	movf	oledC_DrawCircle@y^(0+1280),w,c
  5460  010306  2418               	addwf	oledC_DrawCircle@y0^(0+1280),w,c
  5461  010308  6E14               	movwf	oledC_DrawPoint@y^(0+1280),c
  5462  01030A  C51A  F515         	movff	oledC_DrawCircle@color,oledC_DrawPoint@color
  5463  01030E  C51B  F516         	movff	oledC_DrawCircle@color+1,oledC_DrawPoint@color+1
  5464  010312  5024               	movf	oledC_DrawCircle@x^(0+1280),w,c
  5465  010314  2423               	addwf	oledC_DrawCircle@x0^(0+1280),w,c
  5466  010316  ECE5  F08A         	call	_oledC_DrawPoint
  5467                           
  5468                           ;mcc_generated_files/oledC_shapes.c: 200:                     oledC_DrawPoint(x0 + x,y0 
      +                          - y, color);
  5469  01031A  5025               	movf	oledC_DrawCircle@y^(0+1280),w,c
  5470  01031C  5C18               	subwf	oledC_DrawCircle@y0^(0+1280),w,c
  5471  01031E  6E14               	movwf	oledC_DrawPoint@y^(0+1280),c
  5472  010320  C51A  F515         	movff	oledC_DrawCircle@color,oledC_DrawPoint@color
  5473  010324  C51B  F516         	movff	oledC_DrawCircle@color+1,oledC_DrawPoint@color+1
  5474  010328  5024               	movf	oledC_DrawCircle@x^(0+1280),w,c
  5475  01032A  2423               	addwf	oledC_DrawCircle@x0^(0+1280),w,c
  5476  01032C  ECE5  F08A         	call	_oledC_DrawPoint
  5477                           
  5478                           ;mcc_generated_files/oledC_shapes.c: 201:                     oledC_DrawPoint(x0 - x,y0 
      +                          + y, color);
  5479  010330  5025               	movf	oledC_DrawCircle@y^(0+1280),w,c
  5480  010332  2418               	addwf	oledC_DrawCircle@y0^(0+1280),w,c
  5481  010334  6E14               	movwf	oledC_DrawPoint@y^(0+1280),c
  5482  010336  C51A  F515         	movff	oledC_DrawCircle@color,oledC_DrawPoint@color
  5483  01033A  C51B  F516         	movff	oledC_DrawCircle@color+1,oledC_DrawPoint@color+1
  5484  01033E  5024               	movf	oledC_DrawCircle@x^(0+1280),w,c
  5485  010340  5C23               	subwf	oledC_DrawCircle@x0^(0+1280),w,c
  5486  010342  ECE5  F08A         	call	_oledC_DrawPoint
  5487                           
  5488                           ;mcc_generated_files/oledC_shapes.c: 202:                     oledC_DrawPoint(x0 - x,y0 
      +                          - y, color);
  5489  010346  5025               	movf	oledC_DrawCircle@y^(0+1280),w,c
  5490  010348  5C18               	subwf	oledC_DrawCircle@y0^(0+1280),w,c
  5491  01034A  6E14               	movwf	oledC_DrawPoint@y^(0+1280),c
  5492  01034C  C51A  F515         	movff	oledC_DrawCircle@color,oledC_DrawPoint@color
  5493  010350  C51B  F516         	movff	oledC_DrawCircle@color+1,oledC_DrawPoint@color+1
  5494  010354  5024               	movf	oledC_DrawCircle@x^(0+1280),w,c
  5495  010356  5C23               	subwf	oledC_DrawCircle@x0^(0+1280),w,c
  5496  010358  ECE5  F08A         	call	_oledC_DrawPoint
  5497                           
  5498                           ;mcc_generated_files/oledC_shapes.c: 203:                     oledC_DrawPoint(x0 + y,y0 
      +                          + x, color);
  5499  01035C  5024               	movf	oledC_DrawCircle@x^(0+1280),w,c
  5500  01035E  2418               	addwf	oledC_DrawCircle@y0^(0+1280),w,c
  5501  010360  6E14               	movwf	oledC_DrawPoint@y^(0+1280),c
  5502  010362  C51A  F515         	movff	oledC_DrawCircle@color,oledC_DrawPoint@color
  5503  010366  C51B  F516         	movff	oledC_DrawCircle@color+1,oledC_DrawPoint@color+1
  5504  01036A  5025               	movf	oledC_DrawCircle@y^(0+1280),w,c
  5505  01036C  2423               	addwf	oledC_DrawCircle@x0^(0+1280),w,c
  5506  01036E  ECE5  F08A         	call	_oledC_DrawPoint
  5507                           
  5508                           ;mcc_generated_files/oledC_shapes.c: 204:                     oledC_DrawPoint(x0 + y,y0 
      +                          - x, color);
  5509  010372  5024               	movf	oledC_DrawCircle@x^(0+1280),w,c
  5510  010374  5C18               	subwf	oledC_DrawCircle@y0^(0+1280),w,c
  5511  010376  6E14               	movwf	oledC_DrawPoint@y^(0+1280),c
  5512  010378  C51A  F515         	movff	oledC_DrawCircle@color,oledC_DrawPoint@color
  5513  01037C  C51B  F516         	movff	oledC_DrawCircle@color+1,oledC_DrawPoint@color+1
  5514  010380  5025               	movf	oledC_DrawCircle@y^(0+1280),w,c
  5515  010382  2423               	addwf	oledC_DrawCircle@x0^(0+1280),w,c
  5516  010384  ECE5  F08A         	call	_oledC_DrawPoint
  5517                           
  5518                           ;mcc_generated_files/oledC_shapes.c: 205:                     oledC_DrawPoint(x0 - y,y0 
      +                          + x, color);
  5519  010388  5024               	movf	oledC_DrawCircle@x^(0+1280),w,c
  5520  01038A  2418               	addwf	oledC_DrawCircle@y0^(0+1280),w,c
  5521  01038C  6E14               	movwf	oledC_DrawPoint@y^(0+1280),c
  5522  01038E  C51A  F515         	movff	oledC_DrawCircle@color,oledC_DrawPoint@color
  5523  010392  C51B  F516         	movff	oledC_DrawCircle@color+1,oledC_DrawPoint@color+1
  5524  010396  5025               	movf	oledC_DrawCircle@y^(0+1280),w,c
  5525  010398  5C23               	subwf	oledC_DrawCircle@x0^(0+1280),w,c
  5526  01039A  ECE5  F08A         	call	_oledC_DrawPoint
  5527                           
  5528                           ;mcc_generated_files/oledC_shapes.c: 206:                     oledC_DrawPoint(x0 - y,y0 
      +                          - x, color);
  5529  01039E  5024               	movf	oledC_DrawCircle@x^(0+1280),w,c
  5530  0103A0  5C18               	subwf	oledC_DrawCircle@y0^(0+1280),w,c
  5531  0103A2  6E14               	movwf	oledC_DrawPoint@y^(0+1280),c
  5532  0103A4  C51A  F515         	movff	oledC_DrawCircle@color,oledC_DrawPoint@color
  5533  0103A8  C51B  F516         	movff	oledC_DrawCircle@color+1,oledC_DrawPoint@color+1
  5534  0103AC  5025               	movf	oledC_DrawCircle@y^(0+1280),w,c
  5535  0103AE  5C23               	subwf	oledC_DrawCircle@x0^(0+1280),w,c
  5536  0103B0  ECE5  F08A         	call	_oledC_DrawPoint
  5537  0103B4                     
  5538                           ;mcc_generated_files/oledC_shapes.c: 207:                 }
  5539  0103B4  2A24               	incf	oledC_DrawCircle@x^(0+1280),f,c
  5540  0103B6                     l2747:
  5541  0103B6  5024               	movf	oledC_DrawCircle@x^(0+1280),w,c
  5542  0103B8  0A80               	xorlw	128
  5543  0103BA  6E1C               	movwf	??_oledC_DrawCircle^(0+1280),c
  5544  0103BC  5021               	movf	oledC_DrawCircle@xCurr^(0+1280),w,c
  5545  0103BE  0A80               	xorlw	128
  5546  0103C0  5C1C               	subwf	??_oledC_DrawCircle^(0+1280),w,c
  5547  0103C2  A0D8               	btfss	status,0,c
  5548  0103C4  EFE6  F081         	goto	u1351
  5549  0103C8  EFE8  F081         	goto	u1350
  5550  0103CC                     u1351:
  5551  0103CC  EF82  F081         	goto	l2743
  5552  0103D0                     u1350:
  5553  0103D0                     
  5554                           ;mcc_generated_files/oledC_shapes.c: 208:             }
  5555  0103D0  2A25               	incf	oledC_DrawCircle@y^(0+1280),f,c
  5556  0103D2                     l2751:
  5557  0103D2  5025               	movf	oledC_DrawCircle@y^(0+1280),w,c
  5558  0103D4  0A80               	xorlw	128
  5559  0103D6  6E1C               	movwf	??_oledC_DrawCircle^(0+1280),c
  5560  0103D8  5022               	movf	oledC_DrawCircle@yMax^(0+1280),w,c
  5561  0103DA  0A80               	xorlw	128
  5562  0103DC  5C1C               	subwf	??_oledC_DrawCircle^(0+1280),w,c
  5563  0103DE  A0D8               	btfss	status,0,c
  5564  0103E0  EFF4  F081         	goto	u1361
  5565  0103E4  EFF6  F081         	goto	u1360
  5566  0103E8                     u1361:
  5567  0103E8  EF7E  F081         	goto	l94
  5568  0103EC                     u1360:
  5569  0103EC                     
  5570                           ;mcc_generated_files/oledC_shapes.c: 209:             d += -2*xCurr + 1;
  5571  0103EC  5021               	movf	oledC_DrawCircle@xCurr^(0+1280),w,c
  5572  0103EE  6E01               	movwf	___wmul@multiplier^(0+1280),c
  5573  0103F0  6A02               	clrf	(___wmul@multiplier+1)^(0+1280),c
  5574  0103F2  BE01               	btfsc	___wmul@multiplier^(0+1280),7,c
  5575  0103F4  0602               	decf	(___wmul@multiplier+1)^(0+1280),f,c
  5576  0103F6  0EFF               	movlw	255
  5577  0103F8  6E04               	movwf	(___wmul@multiplicand+1)^(0+1280),c
  5578  0103FA  0EFE               	movlw	254
  5579  0103FC  6E03               	movwf	___wmul@multiplicand^(0+1280),c
  5580  0103FE  ECFE  F08B         	call	___wmul	;wreg free
  5581  010402  0E01               	movlw	1
  5582  010404  2601               	addwf	?___wmul^(0+1280),f,c
  5583  010406  0E00               	movlw	0
  5584  010408  2202               	addwfc	(?___wmul+1)^(0+1280),f,c
  5585  01040A  5001               	movf	?___wmul^(0+1280),w,c
  5586  01040C  261F               	addwf	oledC_DrawCircle@d^(0+1280),f,c
  5587  01040E  5002               	movf	(?___wmul+1)^(0+1280),w,c
  5588  010410  2220               	addwfc	(oledC_DrawCircle@d+1)^(0+1280),f,c
  5589  010412                     
  5590                           ;mcc_generated_files/oledC_shapes.c: 210:             xCurr--;
  5591  010412  0621               	decf	oledC_DrawCircle@xCurr^(0+1280),f,c
  5592  010414                     l2757:
  5593                           
  5594                           ;mcc_generated_files/oledC_shapes.c: 189:     while (xCurr >= yMax)
  5595  010414  5021               	movf	oledC_DrawCircle@xCurr^(0+1280),w,c
  5596  010416  0A80               	xorlw	128
  5597  010418  6E1C               	movwf	??_oledC_DrawCircle^(0+1280),c
  5598  01041A  5022               	movf	oledC_DrawCircle@yMax^(0+1280),w,c
  5599  01041C  0A80               	xorlw	128
  5600  01041E  5C1C               	subwf	??_oledC_DrawCircle^(0+1280),w,c
  5601  010420  B0D8               	btfsc	status,0,c
  5602  010422  EF15  F082         	goto	u1371
  5603  010426  EF17  F082         	goto	u1370
  5604  01042A                     u1371:
  5605  01042A  EF61  F081         	goto	l2735
  5606  01042E                     u1370:
  5607  01042E  0012               	return		;funcret
  5608  010430                     __end_of_oledC_DrawCircle:
  5609                           	callstack 0
  5610                           
  5611 ;; *************** function _oledC_DrawPoint *****************
  5612 ;; Defined at:
  5613 ;;		line 139 in file "mcc_generated_files/oledC_shapes.c"
  5614 ;; Parameters:    Size  Location     Type
  5615 ;;  x               1    wreg     unsigned char 
  5616 ;;  y               1   19[COMRAM] unsigned char 
  5617 ;;  color           2   20[COMRAM] unsigned short 
  5618 ;; Auto vars:     Size  Location     Type
  5619 ;;  x               1   22[COMRAM] unsigned char 
  5620 ;; Return value:  Size  Location     Type
  5621 ;;                  1    wreg      void 
  5622 ;; Registers used:
  5623 ;;		wreg, fsr2l, fsr2h, status,2, status,0, pclath, tosl, tblptrl, tblptrh, tblptru, prodl, prodh, cstack
  5624 ;; Tracked objects:
  5625 ;;		On entry : 0/0
  5626 ;;		On exit  : 0/0
  5627 ;;		Unchanged: 0/0
  5628 ;; Data sizes:     COMRAM   BANK5   BANK6   BANK7   BANK8   BANK9  BANK10  BANK11  BANK12  BANK13  BANK14  BANK15  BANK1
      +6  BANK17  BANK18  BANK19  BANK20  BANK21  BANK22  BANK23  BANK24  BANK25  BANK26  BANK27  BANK28  BANK29  BANK30  BANK3
      +1  BANK32  BANK33  BANK34  BANK35  BANK36  BANK37
  5629 ;;      Params:         3       0       0       0       0       0       0       0       0       0       0       0       
      +0       0       0       0       0       0       0       0       0       0       0       0       0       0       0       
      +0       0       0       0       0       0       0
  5630 ;;      Locals:         1       0       0       0       0       0       0       0       0       0       0       0       
      +0       0       0       0       0       0       0       0       0       0       0       0       0       0       0       
      +0       0       0       0       0       0       0
  5631 ;;      Temps:          0       0       0       0       0       0       0       0       0       0       0       0       
      +0       0       0       0       0       0       0       0       0       0       0       0       0       0       0       
      +0       0       0       0       0       0       0
  5632 ;;      Totals:         4       0       0       0       0       0       0       0       0       0       0       0       
      +0       0       0       0       0       0       0       0       0       0       0       0       0       0       0       
      +0       0       0       0       0       0       0
  5633 ;;Total ram usage:        4 bytes
  5634 ;; Hardware stack levels used: 1
  5635 ;; Hardware stack levels required when called: 5
  5636 ;; This function calls:
  5637 ;;		_oledC_sendColorInt
  5638 ;;		_oledC_setColumnAddressBounds
  5639 ;;		_oledC_setRowAddressBounds
  5640 ;; This function is called by:
  5641 ;;		_oledC_DrawCircle
  5642 ;;		_oledC_DrawRing
  5643 ;;		_oledC_DrawLine
  5644 ;;		_drawPoint
  5645 ;;		_oledC_DrawThickPoint
  5646 ;; This function uses a non-reentrant model
  5647 ;;
  5648                           
  5649                           	psect	text32
  5650  0115CA                     __ptext32:
  5651                           	callstack 0
  5652  0115CA                     _oledC_DrawPoint:
  5653                           	callstack 117
  5654                           
  5655                           ;incstack = 0
  5656                           ;oledC_DrawPoint@x stored from wreg
  5657  0115CA  6E17               	movwf	oledC_DrawPoint@x^(0+1280),c
  5658  0115CC                     
  5659                           ;mcc_generated_files/oledC_shapes.c: 139: void oledC_DrawPoint(uint8_t x, uint8_t y, uin
      +                          t16_t color);mcc_generated_files/oledC_shapes.c: 140: {;mcc_generated_files/oledC_shapes
      +                          .c: 141:     if(x > OLED_DIM_WIDTH || y > OLED_DIM_HEIGHT)
  5660  0115CC  0E60               	movlw	96
  5661  0115CE  6017               	cpfslt	oledC_DrawPoint@x^(0+1280),c
  5662  0115D0  EFEC  F08A         	goto	u1291
  5663  0115D4  EFEE  F08A         	goto	u1290
  5664  0115D8                     u1291:
  5665  0115D8  EF08  F08B         	goto	l56
  5666  0115DC                     u1290:
  5667  0115DC  0E5F               	movlw	95
  5668  0115DE  6414               	cpfsgt	oledC_DrawPoint@y^(0+1280),c
  5669  0115E0  EFF4  F08A         	goto	u1301
  5670  0115E4  EFF6  F08A         	goto	u1300
  5671  0115E8                     u1301:
  5672  0115E8  EFF8  F08A         	goto	l2695
  5673  0115EC                     u1300:
  5674  0115EC  EF08  F08B         	goto	l56
  5675  0115F0                     l2695:
  5676                           
  5677                           ;mcc_generated_files/oledC_shapes.c: 145:     oledC_setColumnAddressBounds(x,95);
  5678  0115F0  0E5F               	movlw	95
  5679  0115F2  6E0C               	movwf	oledC_setColumnAddressBounds@max^(0+1280),c
  5680  0115F4  5017               	movf	oledC_DrawPoint@x^(0+1280),w,c
  5681  0115F6  EC85  F088         	call	_oledC_setColumnAddressBounds
  5682                           
  5683                           ;mcc_generated_files/oledC_shapes.c: 146:     oledC_setRowAddressBounds(y,95);
  5684  0115FA  0E5F               	movlw	95
  5685  0115FC  6E0C               	movwf	oledC_setRowAddressBounds@max^(0+1280),c
  5686  0115FE  5014               	movf	oledC_DrawPoint@y^(0+1280),w,c
  5687  011600  EC90  F089         	call	_oledC_setRowAddressBounds
  5688                           
  5689                           ;mcc_generated_files/oledC_shapes.c: 147:     oledC_sendColorInt(color);
  5690  011604  C515  F50C         	movff	oledC_DrawPoint@color,oledC_sendColorInt@raw
  5691  011608  C516  F50D         	movff	oledC_DrawPoint@color+1,oledC_sendColorInt@raw+1
  5692  01160C  EC9D  F08B         	call	_oledC_sendColorInt	;wreg free
  5693  011610                     l56:
  5694  011610  0012               	return		;funcret
  5695  011612                     __end_of_oledC_DrawPoint:
  5696                           	callstack 0
  5697                           
  5698 ;; *************** function ___wmul *****************
  5699 ;; Defined at:
  5700 ;;		line 15 in file "C:\Program Files\Microchip\xc8\v2.32\pic\sources\c99\common\Umul16.c"
  5701 ;; Parameters:    Size  Location     Type
  5702 ;;  multiplier      2    0[COMRAM] unsigned int 
  5703 ;;  multiplicand    2    2[COMRAM] unsigned int 
  5704 ;; Auto vars:     Size  Location     Type
  5705 ;;  product         2    4[COMRAM] unsigned int 
  5706 ;; Return value:  Size  Location     Type
  5707 ;;                  2    0[COMRAM] unsigned int 
  5708 ;; Registers used:
  5709 ;;		wreg, status,2, status,0, prodl, prodh
  5710 ;; Tracked objects:
  5711 ;;		On entry : 0/0
  5712 ;;		On exit  : 0/0
  5713 ;;		Unchanged: 0/0
  5714 ;; Data sizes:     COMRAM   BANK5   BANK6   BANK7   BANK8   BANK9  BANK10  BANK11  BANK12  BANK13  BANK14  BANK15  BANK1
      +6  BANK17  BANK18  BANK19  BANK20  BANK21  BANK22  BANK23  BANK24  BANK25  BANK26  BANK27  BANK28  BANK29  BANK30  BANK3
      +1  BANK32  BANK33  BANK34  BANK35  BANK36  BANK37
  5715 ;;      Params:         4       0       0       0       0       0       0       0       0       0       0       0       
      +0       0       0       0       0       0       0       0       0       0       0       0       0       0       0       
      +0       0       0       0       0       0       0
  5716 ;;      Locals:         2       0       0       0       0       0       0       0       0       0       0       0       
      +0       0       0       0       0       0       0       0       0       0       0       0       0       0       0       
      +0       0       0       0       0       0       0
  5717 ;;      Temps:          0       0       0       0       0       0       0       0       0       0       0       0       
      +0       0       0       0       0       0       0       0       0       0       0       0       0       0       0       
      +0       0       0       0       0       0       0
  5718 ;;      Totals:         6       0       0       0       0       0       0       0       0       0       0       0       
      +0       0       0       0       0       0       0       0       0       0       0       0       0       0       0       
      +0       0       0       0       0       0       0
  5719 ;;Total ram usage:        6 bytes
  5720 ;; Hardware stack levels used: 1
  5721 ;; This function calls:
  5722 ;;		Nothing
  5723 ;; This function is called by:
  5724 ;;		_oledC_DrawCircle
  5725 ;;		_oledC_DrawRing
  5726 ;; This function uses a non-reentrant model
  5727 ;;
  5728                           
  5729                           	psect	text33
  5730  0117FC                     __ptext33:
  5731                           	callstack 0
  5732  0117FC                     ___wmul:
  5733                           	callstack 122
  5734  0117FC  5001               	movf	___wmul@multiplier^(0+1280),w,c
  5735  0117FE  0203               	mulwf	___wmul@multiplicand^(0+1280),c
  5736  011800  0061 F3CC  F505    	movff	prodl,___wmul@product
  5737  011806  0061 F3D0  F506    	movff	prodh,___wmul@product+1
  5738  01180C  5001               	movf	___wmul@multiplier^(0+1280),w,c
  5739  01180E  0204               	mulwf	(___wmul@multiplicand+1)^(0+1280),c
  5740  011810  50F3               	movf	243,w,c
  5741  011812  2606               	addwf	(___wmul@product+1)^(0+1280),f,c
  5742  011814  5002               	movf	(___wmul@multiplier+1)^(0+1280),w,c
  5743  011816  0203               	mulwf	___wmul@multiplicand^(0+1280),c
  5744  011818  50F3               	movf	243,w,c
  5745  01181A  2606               	addwf	(___wmul@product+1)^(0+1280),f,c
  5746  01181C  C505  F501         	movff	___wmul@product,?___wmul
  5747  011820  C506  F502         	movff	___wmul@product+1,?___wmul+1
  5748  011824  0012               	return		;funcret
  5749  011826                     __end_of___wmul:
  5750                           	callstack 0
  5751                           
  5752 ;; *************** function _oledC_DrawCharacter *****************
  5753 ;; Defined at:
  5754 ;;		line 297 in file "mcc_generated_files/oledC_shapes.c"
  5755 ;; Parameters:    Size  Location     Type
  5756 ;;  x               1    wreg     unsigned char 
  5757 ;;  y               1   32[COMRAM] unsigned char 
  5758 ;;  sx              1   33[COMRAM] unsigned char 
  5759 ;;  sy              1   34[COMRAM] unsigned char 
  5760 ;;  ch              1   35[COMRAM] unsigned char 
  5761 ;;  color           2   36[COMRAM] unsigned short 
  5762 ;; Auto vars:     Size  Location     Type
  5763 ;;  x               1   45[COMRAM] unsigned char 
  5764 ;;  curr_char_by    1   44[COMRAM] unsigned char 
  5765 ;;  i_y             2   48[COMRAM] unsigned short 
  5766 ;;  i_x             2   46[COMRAM] unsigned short 
  5767 ;;  f               2   42[COMRAM] PTR const unsigned char 
  5768 ;;		 -> font(475), 
  5769 ;; Return value:  Size  Location     Type
  5770 ;;                  1    wreg      void 
  5771 ;; Registers used:
  5772 ;;		wreg, fsr2l, fsr2h, status,2, status,0, pclath, tosl, tblptrl, tblptrh, tblptru, prodl, prodh, cstack
  5773 ;; Tracked objects:
  5774 ;;		On entry : 0/0
  5775 ;;		On exit  : 0/0
  5776 ;;		Unchanged: 0/0
  5777 ;; Data sizes:     COMRAM   BANK5   BANK6   BANK7   BANK8   BANK9  BANK10  BANK11  BANK12  BANK13  BANK14  BANK15  BANK1
      +6  BANK17  BANK18  BANK19  BANK20  BANK21  BANK22  BANK23  BANK24  BANK25  BANK26  BANK27  BANK28  BANK29  BANK30  BANK3
      +1  BANK32  BANK33  BANK34  BANK35  BANK36  BANK37
  5778 ;;      Params:         6       0       0       0       0       0       0       0       0       0       0       0       
      +0       0       0       0       0       0       0       0       0       0       0       0       0       0       0       
      +0       0       0       0       0       0       0
  5779 ;;      Locals:         8       0       0       0       0       0       0       0       0       0       0       0       
      +0       0       0       0       0       0       0       0       0       0       0       0       0       0       0       
      +0       0       0       0       0       0       0
  5780 ;;      Temps:          4       0       0       0       0       0       0       0       0       0       0       0       
      +0       0       0       0       0       0       0       0       0       0       0       0       0       0       0       
      +0       0       0       0       0       0       0
  5781 ;;      Totals:        18       0       0       0       0       0       0       0       0       0       0       0       
      +0       0       0       0       0       0       0       0       0       0       0       0       0       0       0       
      +0       0       0       0       0       0       0
  5782 ;;Total ram usage:       18 bytes
  5783 ;; Hardware stack levels used: 1
  5784 ;; Hardware stack levels required when called: 6
  5785 ;; This function calls:
  5786 ;;		_oledC_DrawRectangle
  5787 ;; This function is called by:
  5788 ;;		_oledC_DrawString
  5789 ;;		_drawCharacter
  5790 ;; This function uses a non-reentrant model
  5791 ;;
  5792                           
  5793                           	psect	text34
  5794  0108BA                     __ptext34:
  5795                           	callstack 0
  5796  0108BA                     _oledC_DrawCharacter:
  5797                           	callstack 116
  5798                           
  5799                           ;incstack = 0
  5800                           ;oledC_DrawCharacter@x stored from wreg
  5801  0108BA  6E2E               	movwf	oledC_DrawCharacter@x^(0+1280),c
  5802  0108BC                     
  5803                           ;mcc_generated_files/oledC_shapes.c: 297: void oledC_DrawCharacter(uint8_t x, uint8_t y,
      +                           uint8_t sx, uint8_t sy, uint8_t ch, uint16_t color);mcc_generated_files/oledC_shapes.c:
      +                           298: {;mcc_generated_files/oledC_shapes.c: 299:     const uint8_t *f = &font[(ch-' ')*O
      +                          LED_FONT_WIDTH];
  5804  0108BC  0E60               	movlw	96
  5805  0108BE  6E27               	movwf	??_oledC_DrawCharacter^(0+1280),c
  5806  0108C0  0EFF               	movlw	255
  5807  0108C2  6E28               	movwf	(??_oledC_DrawCharacter+1)^(0+1280),c
  5808  0108C4  5024               	movf	oledC_DrawCharacter@ch^(0+1280),w,c
  5809  0108C6  0D05               	mullw	5
  5810  0108C8  0061 F3CC  F529    	movff	prodl,??_oledC_DrawCharacter+2
  5811  0108CE  0061 F3D0  F52A    	movff	prodh,??_oledC_DrawCharacter+3
  5812  0108D4  5027               	movf	??_oledC_DrawCharacter^(0+1280),w,c
  5813  0108D6  2629               	addwf	(??_oledC_DrawCharacter+2)^(0+1280),f,c
  5814  0108D8  5028               	movf	(??_oledC_DrawCharacter+1)^(0+1280),w,c
  5815  0108DA  222A               	addwfc	(??_oledC_DrawCharacter+3)^(0+1280),f,c
  5816  0108DC  0EC6               	movlw	low _font
  5817  0108DE  2429               	addwf	(??_oledC_DrawCharacter+2)^(0+1280),w,c
  5818  0108E0  6E2B               	movwf	oledC_DrawCharacter@f^(0+1280),c
  5819  0108E2  0EFD               	movlw	high _font
  5820  0108E4  202A               	addwfc	(??_oledC_DrawCharacter+3)^(0+1280),w,c
  5821  0108E6  6E2C               	movwf	(oledC_DrawCharacter@f+1)^(0+1280),c
  5822  0108E8                     
  5823                           ;mcc_generated_files/oledC_shapes.c: 300:     uint16_t i_x;;mcc_generated_files/oledC_sh
      +                          apes.c: 301:     uint16_t i_y;;mcc_generated_files/oledC_shapes.c: 303:     for(i_x = 0;
      +                           i_x < OLED_FONT_WIDTH * sx; i_x += sx)
  5824  0108E8  0E00               	movlw	0
  5825  0108EA  6E30               	movwf	(oledC_DrawCharacter@i_x+1)^(0+1280),c
  5826  0108EC  0E00               	movlw	0
  5827  0108EE  6E2F               	movwf	oledC_DrawCharacter@i_x^(0+1280),c
  5828  0108F0  EFC5  F084         	goto	l2783
  5829  0108F4                     l2763:
  5830                           
  5831                           ;mcc_generated_files/oledC_shapes.c: 304:     {;mcc_generated_files/oledC_shapes.c: 305:
      +                                   uint8_t curr_char_byte = *f++;
  5832  0108F4  0061  F4AC  F4F6   	movff	oledC_DrawCharacter@f,tblptrl
  5833  0108FA  0061  F4B0  F4F7   	movff	oledC_DrawCharacter@f+1,tblptrh
  5834  010900                     	if	0	;tblptru may be non-zero
  5835  010900                     	endif
  5836  010900                     	if	1	;Program memory is > 0xFFFF, there are 3 active tblptr bytes
  5837  010900  0E00               	movlw	low (__mediumconst shr (0+16))
  5838  010902  6EF8               	movwf	tblptru,c
  5839  010904                     	endif
  5840  010904  0008               	tblrd		*
  5841  010906  0061 F3D4  F52D    	movff	tablat,oledC_DrawCharacter@curr_char_byte
  5842  01090C  4A2B               	infsnz	oledC_DrawCharacter@f^(0+1280),f,c
  5843  01090E  2A2C               	incf	(oledC_DrawCharacter@f+1)^(0+1280),f,c
  5844  010910                     
  5845                           ;mcc_generated_files/oledC_shapes.c: 306:         for(i_y = OLED_FONT_HEIGHT*sy; i_y > 0
      +                          ; i_y -= sy)
  5846  010910  5023               	movf	oledC_DrawCharacter@sy^(0+1280),w,c
  5847  010912  0D08               	mullw	8
  5848  010914  0061 F3CC  F531    	movff	prodl,oledC_DrawCharacter@i_y
  5849  01091A  0061 F3D0  F532    	movff	prodh,oledC_DrawCharacter@i_y+1
  5850  010920                     l2769:
  5851  010920  5031               	movf	oledC_DrawCharacter@i_y^(0+1280),w,c
  5852  010922  1032               	iorwf	(oledC_DrawCharacter@i_y+1)^(0+1280),w,c
  5853  010924  A4D8               	btfss	status,2,c
  5854  010926  EF97  F084         	goto	u1381
  5855  01092A  EF99  F084         	goto	u1380
  5856  01092E                     u1381:
  5857  01092E  EF9B  F084         	goto	l138
  5858  010932                     u1380:
  5859  010932  EFC1  F084         	goto	l2781
  5860  010936                     l138:
  5861                           
  5862                           ;mcc_generated_files/oledC_shapes.c: 307:         {;mcc_generated_files/oledC_shapes.c: 
      +                          308:             if(curr_char_byte & 0x01)
  5863  010936  A02D               	btfss	oledC_DrawCharacter@curr_char_byte^(0+1280),0,c
  5864  010938  EFA0  F084         	goto	u1391
  5865  01093C  EFA2  F084         	goto	u1390
  5866  010940                     u1391:
  5867  010940  EFB9  F084         	goto	l2775
  5868  010944                     u1390:
  5869  010944                     
  5870                           ;mcc_generated_files/oledC_shapes.c: 309:             {;mcc_generated_files/oledC_shapes
      +                          .c: 310:                 oledC_DrawRectangle(x+i_x, y+i_y, x+i_x+sx-1, y+i_y+sy-1, color
      +                          );
  5871  010944  5021               	movf	oledC_DrawCharacter@y^(0+1280),w,c
  5872  010946  2431               	addwf	oledC_DrawCharacter@i_y^(0+1280),w,c
  5873  010948  6E14               	movwf	oledC_DrawRectangle@start_y^(0+1280),c
  5874  01094A  502E               	movf	oledC_DrawCharacter@x^(0+1280),w,c
  5875  01094C  2422               	addwf	oledC_DrawCharacter@sx^(0+1280),w,c
  5876  01094E  242F               	addwf	oledC_DrawCharacter@i_x^(0+1280),w,c
  5877  010950  6E27               	movwf	??_oledC_DrawCharacter^(0+1280),c
  5878  010952  0427               	decf	??_oledC_DrawCharacter^(0+1280),w,c
  5879  010954  6E15               	movwf	oledC_DrawRectangle@end_x^(0+1280),c
  5880  010956  5021               	movf	oledC_DrawCharacter@y^(0+1280),w,c
  5881  010958  2423               	addwf	oledC_DrawCharacter@sy^(0+1280),w,c
  5882  01095A  2431               	addwf	oledC_DrawCharacter@i_y^(0+1280),w,c
  5883  01095C  6E28               	movwf	(??_oledC_DrawCharacter+1)^(0+1280),c
  5884  01095E  0428               	decf	(??_oledC_DrawCharacter+1)^(0+1280),w,c
  5885  010960  6E16               	movwf	oledC_DrawRectangle@end_y^(0+1280),c
  5886  010962  C525  F517         	movff	oledC_DrawCharacter@color,oledC_DrawRectangle@color
  5887  010966  C526  F518         	movff	oledC_DrawCharacter@color+1,oledC_DrawRectangle@color+1
  5888  01096A  502E               	movf	oledC_DrawCharacter@x^(0+1280),w,c
  5889  01096C  242F               	addwf	oledC_DrawCharacter@i_x^(0+1280),w,c
  5890  01096E  EC77  F087         	call	_oledC_DrawRectangle
  5891  010972                     l2775:
  5892                           
  5893                           ;mcc_generated_files/oledC_shapes.c: 312:             curr_char_byte >>= 1;
  5894  010972  90D8               	bcf	status,0,c
  5895  010974  322D               	rrcf	oledC_DrawCharacter@curr_char_byte^(0+1280),f,c
  5896  010976                     
  5897                           ;mcc_generated_files/oledC_shapes.c: 313:         }
  5898  010976  5023               	movf	oledC_DrawCharacter@sy^(0+1280),w,c
  5899  010978  5E31               	subwf	oledC_DrawCharacter@i_y^(0+1280),f,c
  5900  01097A  0E00               	movlw	0
  5901  01097C  5A32               	subwfb	(oledC_DrawCharacter@i_y+1)^(0+1280),f,c
  5902  01097E  EF90  F084         	goto	l2769
  5903  010982                     l2781:
  5904                           
  5905                           ;mcc_generated_files/oledC_shapes.c: 314:     }
  5906  010982  5022               	movf	oledC_DrawCharacter@sx^(0+1280),w,c
  5907  010984  262F               	addwf	oledC_DrawCharacter@i_x^(0+1280),f,c
  5908  010986  0E00               	movlw	0
  5909  010988  2230               	addwfc	(oledC_DrawCharacter@i_x+1)^(0+1280),f,c
  5910  01098A                     l2783:
  5911  01098A  5022               	movf	oledC_DrawCharacter@sx^(0+1280),w,c
  5912  01098C  0D05               	mullw	5
  5913  01098E  50F3               	movf	243,w,c
  5914  010990  5C2F               	subwf	oledC_DrawCharacter@i_x^(0+1280),w,c
  5915  010992  50F4               	movf	244,w,c
  5916  010994  5830               	subwfb	(oledC_DrawCharacter@i_x+1)^(0+1280),w,c
  5917  010996  A0D8               	btfss	status,0,c
  5918  010998  EFD0  F084         	goto	u1401
  5919  01099C  EFD2  F084         	goto	u1400
  5920  0109A0                     u1401:
  5921  0109A0  EF7A  F084         	goto	l2763
  5922  0109A4                     u1400:
  5923  0109A4  0012               	return		;funcret
  5924  0109A6                     __end_of_oledC_DrawCharacter:
  5925                           	callstack 0
  5926                           
  5927 ;; *************** function _oledC_DrawBitmap *****************
  5928 ;; Defined at:
  5929 ;;		line 326 in file "mcc_generated_files/oledC_shapes.c"
  5930 ;; Parameters:    Size  Location     Type
  5931 ;;  x               1    wreg     unsigned char 
  5932 ;;  y               1   32[COMRAM] unsigned char 
  5933 ;;  color           2   33[COMRAM] unsigned short 
  5934 ;;  sx              1   35[COMRAM] unsigned char 
  5935 ;;  sy              1   36[COMRAM] unsigned char 
  5936 ;;  bitmap          2   37[COMRAM] PTR unsigned long 
  5937 ;;		 -> logo(92), 
  5938 ;;  bitmap_lengt    1   39[COMRAM] unsigned char 
  5939 ;; Auto vars:     Size  Location     Type
  5940 ;;  x               1   42[COMRAM] unsigned char 
  5941 ;;  curr_x          1   52[COMRAM] unsigned char 
  5942 ;;  rowBits         4   43[COMRAM] unsigned long 
  5943 ;;  curr_y          1   51[COMRAM] unsigned char 
  5944 ;;  bitNum          1   55[COMRAM] unsigned char 
  5945 ;;  bitmap_width    1   54[COMRAM] const unsigned char 
  5946 ;;  rowNum          1   53[COMRAM] unsigned char 
  5947 ;; Return value:  Size  Location     Type
  5948 ;;                  1    wreg      void 
  5949 ;; Registers used:
  5950 ;;		wreg, fsr2l, fsr2h, status,2, status,0, pclath, tosl, tblptrl, tblptrh, tblptru, prodl, prodh, cstack
  5951 ;; Tracked objects:
  5952 ;;		On entry : 0/0
  5953 ;;		On exit  : 0/0
  5954 ;;		Unchanged: 0/0
  5955 ;; Data sizes:     COMRAM   BANK5   BANK6   BANK7   BANK8   BANK9  BANK10  BANK11  BANK12  BANK13  BANK14  BANK15  BANK1
      +6  BANK17  BANK18  BANK19  BANK20  BANK21  BANK22  BANK23  BANK24  BANK25  BANK26  BANK27  BANK28  BANK29  BANK30  BANK3
      +1  BANK32  BANK33  BANK34  BANK35  BANK36  BANK37
  5956 ;;      Params:         8       0       0       0       0       0       0       0       0       0       0       0       
      +0       0       0       0       0       0       0       0       0       0       0       0       0       0       0       
      +0       0       0       0       0       0       0
  5957 ;;      Locals:        14       0       0       0       0       0       0       0       0       0       0       0       
      +0       0       0       0       0       0       0       0       0       0       0       0       0       0       0       
      +0       0       0       0       0       0       0
  5958 ;;      Temps:          2       0       0       0       0       0       0       0       0       0       0       0       
      +0       0       0       0       0       0       0       0       0       0       0       0       0       0       0       
      +0       0       0       0       0       0       0
  5959 ;;      Totals:        24       0       0       0       0       0       0       0       0       0       0       0       
      +0       0       0       0       0       0       0       0       0       0       0       0       0       0       0       
      +0       0       0       0       0       0       0
  5960 ;;Total ram usage:       24 bytes
  5961 ;; Hardware stack levels used: 1
  5962 ;; Hardware stack levels required when called: 6
  5963 ;; This function calls:
  5964 ;;		_oledC_DrawRectangle
  5965 ;; This function is called by:
  5966 ;;		_drawBitmap
  5967 ;; This function uses a non-reentrant model
  5968 ;;
  5969                           
  5970                           	psect	text35
  5971  01058E                     __ptext35:
  5972                           	callstack 0
  5973  01058E                     _oledC_DrawBitmap:
  5974                           	callstack 117
  5975                           
  5976                           ;incstack = 0
  5977                           ;oledC_DrawBitmap@x stored from wreg
  5978  01058E  6E2B               	movwf	oledC_DrawBitmap@x^(0+1280),c
  5979  010590                     
  5980                           ;mcc_generated_files/oledC_shapes.c: 326: void oledC_DrawBitmap(uint8_t x, uint8_t y, ui
      +                          nt16_t color, uint8_t sx, uint8_t sy, uint32_t *bitmap, uint8_t bitmap_length);mcc_gener
      +                          ated_files/oledC_shapes.c: 327: {;mcc_generated_files/oledC_shapes.c: 328:     const uin
      +                          t8_t bitmap_width = 32;
  5981  010590  0E20               	movlw	32
  5982  010592  6E37               	movwf	oledC_DrawBitmap@bitmap_width^(0+1280),c
  5983  010594                     
  5984                           ;mcc_generated_files/oledC_shapes.c: 329:     uint8_t rowNum;;mcc_generated_files/oledC_
      +                          shapes.c: 330:     uint8_t bitNum;;mcc_generated_files/oledC_shapes.c: 331:     sx = sx 
      +                          == 0 ? 1 : sx;
  5985  010594  5024               	movf	oledC_DrawBitmap@sx^(0+1280),w,c
  5986  010596  B4D8               	btfsc	status,2,c
  5987  010598  EFD0  F082         	goto	u1571
  5988  01059C  EFD2  F082         	goto	u1570
  5989  0105A0                     u1571:
  5990  0105A0  EFD7  F082         	goto	l2903
  5991  0105A4                     u1570:
  5992  0105A4  C524  F530         	movff	oledC_DrawBitmap@sx,_oledC_DrawBitmap$363
  5993  0105A8  6A31               	clrf	(_oledC_DrawBitmap$363+1)^(0+1280),c
  5994  0105AA  EFDB  F082         	goto	l2905
  5995  0105AE                     l2903:
  5996  0105AE  0E00               	movlw	0
  5997  0105B0  6E31               	movwf	(_oledC_DrawBitmap$363+1)^(0+1280),c
  5998  0105B2  0E01               	movlw	1
  5999  0105B4  6E30               	movwf	_oledC_DrawBitmap$363^(0+1280),c
  6000  0105B6                     l2905:
  6001  0105B6  C530  F524         	movff	_oledC_DrawBitmap$363,oledC_DrawBitmap@sx
  6002                           
  6003                           ;mcc_generated_files/oledC_shapes.c: 332:     sy = sy == 0 ? 1 : sy;
  6004  0105BA  5025               	movf	oledC_DrawBitmap@sy^(0+1280),w,c
  6005  0105BC  B4D8               	btfsc	status,2,c
  6006  0105BE  EFE3  F082         	goto	u1581
  6007  0105C2  EFE5  F082         	goto	u1580
  6008  0105C6                     u1581:
  6009  0105C6  EFEA  F082         	goto	l2909
  6010  0105CA                     u1580:
  6011  0105CA  C525  F532         	movff	oledC_DrawBitmap@sy,_oledC_DrawBitmap$364
  6012  0105CE  6A33               	clrf	(_oledC_DrawBitmap$364+1)^(0+1280),c
  6013  0105D0  EFEE  F082         	goto	l2911
  6014  0105D4                     l2909:
  6015  0105D4  0E00               	movlw	0
  6016  0105D6  6E33               	movwf	(_oledC_DrawBitmap$364+1)^(0+1280),c
  6017  0105D8  0E01               	movlw	1
  6018  0105DA  6E32               	movwf	_oledC_DrawBitmap$364^(0+1280),c
  6019  0105DC                     l2911:
  6020  0105DC  C532  F525         	movff	_oledC_DrawBitmap$364,oledC_DrawBitmap@sy
  6021                           
  6022                           ;mcc_generated_files/oledC_shapes.c: 333:     for(rowNum = 0; rowNum < bitmap_length; ro
      +                          wNum++)
  6023  0105E0  0E00               	movlw	0
  6024  0105E2  6E36               	movwf	oledC_DrawBitmap@rowNum^(0+1280),c
  6025  0105E4  EF51  F083         	goto	l2937
  6026  0105E8                     l2913:
  6027                           
  6028                           ;mcc_generated_files/oledC_shapes.c: 334:     {;mcc_generated_files/oledC_shapes.c: 335:
      +                                   uint32_t rowBits = *bitmap++;
  6029  0105E8  0061  F498  F4F6   	movff	oledC_DrawBitmap@bitmap,tblptrl
  6030  0105EE  0061  F49C  F4F7   	movff	oledC_DrawBitmap@bitmap+1,tblptrh
  6031  0105F4                     	if	0	;tblptru may be non-zero
  6032  0105F4                     	endif
  6033  0105F4                     	if	1	;Program memory is > 0xFFFF, there are 3 active tblptr bytes
  6034  0105F4  0E00               	movlw	low (__mediumconst shr (0+16))
  6035  0105F6  6EF8               	movwf	tblptru,c
  6036  0105F8                     	endif
  6037  0105F8  0009               	tblrd		*+
  6038  0105FA  0061 F3D4  F52C    	movff	tablat,oledC_DrawBitmap@rowBits
  6039  010600  0009               	tblrd		*+
  6040  010602  0061 F3D4  F52D    	movff	tablat,oledC_DrawBitmap@rowBits+1
  6041  010608  0009               	tblrd		*+
  6042  01060A  0061 F3D4  F52E    	movff	tablat,oledC_DrawBitmap@rowBits+2
  6043  010610  000A               	tblrd		*-
  6044  010612  0061 F3D4  F52F    	movff	tablat,oledC_DrawBitmap@rowBits+3
  6045  010618  0E04               	movlw	4
  6046  01061A  2626               	addwf	oledC_DrawBitmap@bitmap^(0+1280),f,c
  6047  01061C  0E00               	movlw	0
  6048  01061E  2227               	addwfc	(oledC_DrawBitmap@bitmap+1)^(0+1280),f,c
  6049  010620                     
  6050                           ;mcc_generated_files/oledC_shapes.c: 336:         uint8_t curr_y = y + rowNum*sy;
  6051  010620  5036               	movf	oledC_DrawBitmap@rowNum^(0+1280),w,c
  6052  010622  0225               	mulwf	oledC_DrawBitmap@sy^(0+1280),c
  6053  010624  50F3               	movf	243,w,c
  6054  010626  2421               	addwf	oledC_DrawBitmap@y^(0+1280),w,c
  6055  010628  6E34               	movwf	oledC_DrawBitmap@curr_y^(0+1280),c
  6056  01062A                     
  6057                           ;mcc_generated_files/oledC_shapes.c: 337:         for(bitNum = 0; bitNum < bitmap_width;
      +                           bitNum++)
  6058  01062A  0E00               	movlw	0
  6059  01062C  6E38               	movwf	oledC_DrawBitmap@bitNum^(0+1280),c
  6060  01062E  5037               	movf	oledC_DrawBitmap@bitmap_width^(0+1280),w,c
  6061  010630  A4D8               	btfss	status,2,c
  6062  010632  EF1D  F083         	goto	u1591
  6063  010636  EF1F  F083         	goto	u1590
  6064  01063A                     u1591:
  6065  01063A  EF21  F083         	goto	l161
  6066  01063E                     u1590:
  6067  01063E  EF50  F083         	goto	l2935
  6068  010642                     l161:
  6069                           
  6070                           ;mcc_generated_files/oledC_shapes.c: 338:         {;mcc_generated_files/oledC_shapes.c: 
      +                          339:             if(!(rowBits & 0x01))
  6071  010642  B02C               	btfsc	oledC_DrawBitmap@rowBits^(0+1280),0,c
  6072  010644  EF26  F083         	goto	u1601
  6073  010648  EF28  F083         	goto	u1600
  6074  01064C                     u1601:
  6075  01064C  EF41  F083         	goto	l2929
  6076  010650                     u1600:
  6077  010650                     
  6078                           ;mcc_generated_files/oledC_shapes.c: 340:             {;mcc_generated_files/oledC_shapes
      +                          .c: 341:                 uint8_t curr_x = x + (bitmap_width - bitNum)*sx;
  6079  010650  5038               	movf	oledC_DrawBitmap@bitNum^(0+1280),w,c
  6080  010652  5C37               	subwf	oledC_DrawBitmap@bitmap_width^(0+1280),w,c
  6081  010654  0224               	mulwf	oledC_DrawBitmap@sx^(0+1280),c
  6082  010656  50F3               	movf	243,w,c
  6083  010658  242B               	addwf	oledC_DrawBitmap@x^(0+1280),w,c
  6084  01065A  6E35               	movwf	oledC_DrawBitmap@curr_x^(0+1280),c
  6085  01065C                     
  6086                           ;mcc_generated_files/oledC_shapes.c: 342:                 oledC_DrawRectangle(curr_x, cu
      +                          rr_y, curr_x+sx-1, curr_y+sy-1, color);
  6087  01065C  C534  F514         	movff	oledC_DrawBitmap@curr_y,oledC_DrawRectangle@start_y
  6088  010660  5035               	movf	oledC_DrawBitmap@curr_x^(0+1280),w,c
  6089  010662  2424               	addwf	oledC_DrawBitmap@sx^(0+1280),w,c
  6090  010664  6E29               	movwf	??_oledC_DrawBitmap^(0+1280),c
  6091  010666  0429               	decf	??_oledC_DrawBitmap^(0+1280),w,c
  6092  010668  6E15               	movwf	oledC_DrawRectangle@end_x^(0+1280),c
  6093  01066A  5034               	movf	oledC_DrawBitmap@curr_y^(0+1280),w,c
  6094  01066C  2425               	addwf	oledC_DrawBitmap@sy^(0+1280),w,c
  6095  01066E  6E2A               	movwf	(??_oledC_DrawBitmap+1)^(0+1280),c
  6096  010670  042A               	decf	(??_oledC_DrawBitmap+1)^(0+1280),w,c
  6097  010672  6E16               	movwf	oledC_DrawRectangle@end_y^(0+1280),c
  6098  010674  C522  F517         	movff	oledC_DrawBitmap@color,oledC_DrawRectangle@color
  6099  010678  C523  F518         	movff	oledC_DrawBitmap@color+1,oledC_DrawRectangle@color+1
  6100  01067C  5035               	movf	oledC_DrawBitmap@curr_x^(0+1280),w,c
  6101  01067E  EC77  F087         	call	_oledC_DrawRectangle
  6102  010682                     l2929:
  6103                           
  6104                           ;mcc_generated_files/oledC_shapes.c: 344:             rowBits >>= 0x000001;
  6105  010682  90D8               	bcf	status,0,c
  6106  010684  322F               	rrcf	(oledC_DrawBitmap@rowBits+3)^(0+1280),f,c
  6107  010686  322E               	rrcf	(oledC_DrawBitmap@rowBits+2)^(0+1280),f,c
  6108  010688  322D               	rrcf	(oledC_DrawBitmap@rowBits+1)^(0+1280),f,c
  6109  01068A  322C               	rrcf	oledC_DrawBitmap@rowBits^(0+1280),f,c
  6110  01068C                     
  6111                           ;mcc_generated_files/oledC_shapes.c: 345:         }
  6112  01068C  2A38               	incf	oledC_DrawBitmap@bitNum^(0+1280),f,c
  6113  01068E  5037               	movf	oledC_DrawBitmap@bitmap_width^(0+1280),w,c
  6114  010690  5C38               	subwf	oledC_DrawBitmap@bitNum^(0+1280),w,c
  6115  010692  A0D8               	btfss	status,0,c
  6116  010694  EF4E  F083         	goto	u1611
  6117  010698  EF50  F083         	goto	u1610
  6118  01069C                     u1611:
  6119  01069C  EF21  F083         	goto	l161
  6120  0106A0                     u1610:
  6121  0106A0                     l2935:
  6122                           
  6123                           ;mcc_generated_files/oledC_shapes.c: 346:     }
  6124  0106A0  2A36               	incf	oledC_DrawBitmap@rowNum^(0+1280),f,c
  6125  0106A2                     l2937:
  6126  0106A2  5028               	movf	oledC_DrawBitmap@bitmap_length^(0+1280),w,c
  6127  0106A4  5C36               	subwf	oledC_DrawBitmap@rowNum^(0+1280),w,c
  6128  0106A6  A0D8               	btfss	status,0,c
  6129  0106A8  EF58  F083         	goto	u1621
  6130  0106AC  EF5A  F083         	goto	u1620
  6131  0106B0                     u1621:
  6132  0106B0  EFF4  F082         	goto	l2913
  6133  0106B4                     u1620:
  6134  0106B4  0012               	return		;funcret
  6135  0106B6                     __end_of_oledC_DrawBitmap:
  6136                           	callstack 0
  6137                           
  6138 ;; *************** function _oledC_DrawRectangle *****************
  6139 ;; Defined at:
  6140 ;;		line 282 in file "mcc_generated_files/oledC_shapes.c"
  6141 ;; Parameters:    Size  Location     Type
  6142 ;;  start_x         1    wreg     unsigned char 
  6143 ;;  start_y         1   19[COMRAM] unsigned char 
  6144 ;;  end_x           1   20[COMRAM] unsigned char 
  6145 ;;  end_y           1   21[COMRAM] unsigned char 
  6146 ;;  color           2   22[COMRAM] unsigned short 
  6147 ;; Auto vars:     Size  Location     Type
  6148 ;;  start_x         1   31[COMRAM] unsigned char 
  6149 ;;  y               1   30[COMRAM] unsigned char 
  6150 ;;  x               1   29[COMRAM] unsigned char 
  6151 ;; Return value:  Size  Location     Type
  6152 ;;                  1    wreg      void 
  6153 ;; Registers used:
  6154 ;;		wreg, fsr2l, fsr2h, status,2, status,0, pclath, tosl, tblptrl, tblptrh, tblptru, prodl, prodh, cstack
  6155 ;; Tracked objects:
  6156 ;;		On entry : 0/0
  6157 ;;		On exit  : 0/0
  6158 ;;		Unchanged: 0/0
  6159 ;; Data sizes:     COMRAM   BANK5   BANK6   BANK7   BANK8   BANK9  BANK10  BANK11  BANK12  BANK13  BANK14  BANK15  BANK1
      +6  BANK17  BANK18  BANK19  BANK20  BANK21  BANK22  BANK23  BANK24  BANK25  BANK26  BANK27  BANK28  BANK29  BANK30  BANK3
      +1  BANK32  BANK33  BANK34  BANK35  BANK36  BANK37
  6160 ;;      Params:         5       0       0       0       0       0       0       0       0       0       0       0       
      +0       0       0       0       0       0       0       0       0       0       0       0       0       0       0       
      +0       0       0       0       0       0       0
  6161 ;;      Locals:         3       0       0       0       0       0       0       0       0       0       0       0       
      +0       0       0       0       0       0       0       0       0       0       0       0       0       0       0       
      +0       0       0       0       0       0       0
  6162 ;;      Temps:          5       0       0       0       0       0       0       0       0       0       0       0       
      +0       0       0       0       0       0       0       0       0       0       0       0       0       0       0       
      +0       0       0       0       0       0       0
  6163 ;;      Totals:        13       0       0       0       0       0       0       0       0       0       0       0       
      +0       0       0       0       0       0       0       0       0       0       0       0       0       0       0       
      +0       0       0       0       0       0       0
  6164 ;;Total ram usage:       13 bytes
  6165 ;; Hardware stack levels used: 1
  6166 ;; Hardware stack levels required when called: 5
  6167 ;; This function calls:
  6168 ;;		_oledC_sendColorInt
  6169 ;;		_oledC_setColumnAddressBounds
  6170 ;;		_oledC_setRowAddressBounds
  6171 ;; This function is called by:
  6172 ;;		_oledC_DrawCharacter
  6173 ;;		_oledC_DrawBitmap
  6174 ;;		_drawRectangle
  6175 ;; This function uses a non-reentrant model
  6176 ;;
  6177                           
  6178                           	psect	text36
  6179  010EEE                     __ptext36:
  6180                           	callstack 0
  6181  010EEE                     _oledC_DrawRectangle:
  6182                           	callstack 116
  6183                           
  6184                           ;incstack = 0
  6185                           ;oledC_DrawRectangle@start_x stored from wreg
  6186  010EEE  6E20               	movwf	oledC_DrawRectangle@start_x^(0+1280),c
  6187  010EF0                     
  6188                           ;mcc_generated_files/oledC_shapes.c: 282: void oledC_DrawRectangle(uint8_t start_x, uint
      +                          8_t start_y, uint8_t end_x, uint8_t end_y, uint16_t color);mcc_generated_files/oledC_sha
      +                          pes.c: 283: {;mcc_generated_files/oledC_shapes.c: 284:     uint8_t x;;mcc_generated_file
      +                          s/oledC_shapes.c: 285:     uint8_t y;;mcc_generated_files/oledC_shapes.c: 286:     oledC
      +                          _setColumnAddressBounds(start_x,end_x);
  6189  010EF0  C515  F50C         	movff	oledC_DrawRectangle@end_x,oledC_setColumnAddressBounds@max
  6190  010EF4  5020               	movf	oledC_DrawRectangle@start_x^(0+1280),w,c
  6191  010EF6  EC85  F088         	call	_oledC_setColumnAddressBounds
  6192                           
  6193                           ;mcc_generated_files/oledC_shapes.c: 287:     oledC_setRowAddressBounds(start_y,end_y);
  6194  010EFA  C516  F50C         	movff	oledC_DrawRectangle@end_y,oledC_setRowAddressBounds@max
  6195  010EFE  5014               	movf	oledC_DrawRectangle@start_y^(0+1280),w,c
  6196  010F00  EC90  F089         	call	_oledC_setRowAddressBounds
  6197  010F04                     
  6198                           ;mcc_generated_files/oledC_shapes.c: 288:     for(x = start_x; x < end_x+1; x++)
  6199  010F04  C520  F51E         	movff	oledC_DrawRectangle@start_x,oledC_DrawRectangle@x
  6200  010F08  EFAB  F087         	goto	l2709
  6201  010F0C                     l128:
  6202                           
  6203                           ;mcc_generated_files/oledC_shapes.c: 289:     {;mcc_generated_files/oledC_shapes.c: 290:
      +                                   for(y = start_y; y < end_y+1; y++)
  6204  010F0C  C514  F51F         	movff	oledC_DrawRectangle@start_y,oledC_DrawRectangle@y
  6205  010F10  EF91  F087         	goto	l2705
  6206  010F14                     l2701:
  6207                           
  6208                           ;mcc_generated_files/oledC_shapes.c: 291:         {;mcc_generated_files/oledC_shapes.c: 
      +                          292:             oledC_sendColorInt(color);
  6209  010F14  C517  F50C         	movff	oledC_DrawRectangle@color,oledC_sendColorInt@raw
  6210  010F18  C518  F50D         	movff	oledC_DrawRectangle@color+1,oledC_sendColorInt@raw+1
  6211  010F1C  EC9D  F08B         	call	_oledC_sendColorInt	;wreg free
  6212  010F20                     
  6213                           ;mcc_generated_files/oledC_shapes.c: 293:         }
  6214  010F20  2A1F               	incf	oledC_DrawRectangle@y^(0+1280),f,c
  6215  010F22                     l2705:
  6216  010F22  5016               	movf	oledC_DrawRectangle@end_y^(0+1280),w,c
  6217  010F24  6E19               	movwf	??_oledC_DrawRectangle^(0+1280),c
  6218  010F26  6A1A               	clrf	(??_oledC_DrawRectangle+1)^(0+1280),c
  6219  010F28  0E01               	movlw	1
  6220  010F2A  2619               	addwf	??_oledC_DrawRectangle^(0+1280),f,c
  6221  010F2C  0E00               	movlw	0
  6222  010F2E  221A               	addwfc	(??_oledC_DrawRectangle+1)^(0+1280),f,c
  6223  010F30  501F               	movf	oledC_DrawRectangle@y^(0+1280),w,c
  6224  010F32  6E1B               	movwf	(??_oledC_DrawRectangle+2)^(0+1280),c
  6225  010F34  6A1C               	clrf	(??_oledC_DrawRectangle+3)^(0+1280),c
  6226  010F36  5019               	movf	??_oledC_DrawRectangle^(0+1280),w,c
  6227  010F38  5C1B               	subwf	(??_oledC_DrawRectangle+2)^(0+1280),w,c
  6228  010F3A  501C               	movf	(??_oledC_DrawRectangle+3)^(0+1280),w,c
  6229  010F3C  0A80               	xorlw	128
  6230  010F3E  6E1D               	movwf	(??_oledC_DrawRectangle+4)^(0+1280),c
  6231  010F40  501A               	movf	(??_oledC_DrawRectangle+1)^(0+1280),w,c
  6232  010F42  0A80               	xorlw	128
  6233  010F44  581D               	subwfb	(??_oledC_DrawRectangle+4)^(0+1280),w,c
  6234  010F46  A0D8               	btfss	status,0,c
  6235  010F48  EFA8  F087         	goto	u1311
  6236  010F4C  EFAA  F087         	goto	u1310
  6237  010F50                     u1311:
  6238  010F50  EF8A  F087         	goto	l2701
  6239  010F54                     u1310:
  6240  010F54                     
  6241                           ;mcc_generated_files/oledC_shapes.c: 294:     }
  6242  010F54  2A1E               	incf	oledC_DrawRectangle@x^(0+1280),f,c
  6243  010F56                     l2709:
  6244  010F56  5015               	movf	oledC_DrawRectangle@end_x^(0+1280),w,c
  6245  010F58  6E19               	movwf	??_oledC_DrawRectangle^(0+1280),c
  6246  010F5A  6A1A               	clrf	(??_oledC_DrawRectangle+1)^(0+1280),c
  6247  010F5C  0E01               	movlw	1
  6248  010F5E  2619               	addwf	??_oledC_DrawRectangle^(0+1280),f,c
  6249  010F60  0E00               	movlw	0
  6250  010F62  221A               	addwfc	(??_oledC_DrawRectangle+1)^(0+1280),f,c
  6251  010F64  501E               	movf	oledC_DrawRectangle@x^(0+1280),w,c
  6252  010F66  6E1B               	movwf	(??_oledC_DrawRectangle+2)^(0+1280),c
  6253  010F68  6A1C               	clrf	(??_oledC_DrawRectangle+3)^(0+1280),c
  6254  010F6A  5019               	movf	??_oledC_DrawRectangle^(0+1280),w,c
  6255  010F6C  5C1B               	subwf	(??_oledC_DrawRectangle+2)^(0+1280),w,c
  6256  010F6E  501C               	movf	(??_oledC_DrawRectangle+3)^(0+1280),w,c
  6257  010F70  0A80               	xorlw	128
  6258  010F72  6E1D               	movwf	(??_oledC_DrawRectangle+4)^(0+1280),c
  6259  010F74  501A               	movf	(??_oledC_DrawRectangle+1)^(0+1280),w,c
  6260  010F76  0A80               	xorlw	128
  6261  010F78  581D               	subwfb	(??_oledC_DrawRectangle+4)^(0+1280),w,c
  6262  010F7A  A0D8               	btfss	status,0,c
  6263  010F7C  EFC2  F087         	goto	u1321
  6264  010F80  EFC4  F087         	goto	u1320
  6265  010F84                     u1321:
  6266  010F84  EF86  F087         	goto	l128
  6267  010F88                     u1320:
  6268  010F88  0012               	return		;funcret
  6269  010F8A                     __end_of_oledC_DrawRectangle:
  6270                           	callstack 0
  6271                           
  6272 ;; *************** function _oledC_setRowAddressBounds *****************
  6273 ;; Defined at:
  6274 ;;		line 112 in file "mcc_generated_files/oledC.c"
  6275 ;; Parameters:    Size  Location     Type
  6276 ;;  min             1    wreg     unsigned char 
  6277 ;;  max             1   11[COMRAM] unsigned char 
  6278 ;; Auto vars:     Size  Location     Type
  6279 ;;  min             1   18[COMRAM] unsigned char 
  6280 ;;  payload         2   12[COMRAM] unsigned char [2]
  6281 ;; Return value:  Size  Location     Type
  6282 ;;                  1    wreg      void 
  6283 ;; Registers used:
  6284 ;;		wreg, fsr2l, fsr2h, status,2, status,0, pclath, tosl, tblptrl, tblptrh, tblptru, prodl, prodh, cstack
  6285 ;; Tracked objects:
  6286 ;;		On entry : 0/0
  6287 ;;		On exit  : 0/0
  6288 ;;		Unchanged: 0/0
  6289 ;; Data sizes:     COMRAM   BANK5   BANK6   BANK7   BANK8   BANK9  BANK10  BANK11  BANK12  BANK13  BANK14  BANK15  BANK1
      +6  BANK17  BANK18  BANK19  BANK20  BANK21  BANK22  BANK23  BANK24  BANK25  BANK26  BANK27  BANK28  BANK29  BANK30  BANK3
      +1  BANK32  BANK33  BANK34  BANK35  BANK36  BANK37
  6290 ;;      Params:         1       0       0       0       0       0       0       0       0       0       0       0       
      +0       0       0       0       0       0       0       0       0       0       0       0       0       0       0       
      +0       0       0       0       0       0       0
  6291 ;;      Locals:         7       0       0       0       0       0       0       0       0       0       0       0       
      +0       0       0       0       0       0       0       0       0       0       0       0       0       0       0       
      +0       0       0       0       0       0       0
  6292 ;;      Temps:          0       0       0       0       0       0       0       0       0       0       0       0       
      +0       0       0       0       0       0       0       0       0       0       0       0       0       0       0       
      +0       0       0       0       0       0       0
  6293 ;;      Totals:         8       0       0       0       0       0       0       0       0       0       0       0       
      +0       0       0       0       0       0       0       0       0       0       0       0       0       0       0       
      +0       0       0       0       0       0       0
  6294 ;;Total ram usage:        8 bytes
  6295 ;; Hardware stack levels used: 1
  6296 ;; Hardware stack levels required when called: 3
  6297 ;; This function calls:
  6298 ;;		_oledC_sendCommand
  6299 ;; This function is called by:
  6300 ;;		_oledC_DrawPoint
  6301 ;;		_oledC_DrawRectangle
  6302 ;;		_oledC_clearScreen
  6303 ;;		_oledC_setup
  6304 ;; This function uses a non-reentrant model
  6305 ;;
  6306                           
  6307                           	psect	text37
  6308  011320                     __ptext37:
  6309                           	callstack 0
  6310  011320                     _oledC_setRowAddressBounds:
  6311                           	callstack 122
  6312                           
  6313                           ;incstack = 0
  6314                           ;oledC_setRowAddressBounds@min stored from wreg
  6315  011320  6E13               	movwf	oledC_setRowAddressBounds@min^(0+1280),c
  6316  011322                     
  6317                           ;mcc_generated_files/oledC.c: 112: void oledC_setRowAddressBounds(uint8_t min, uint8_t m
      +                          ax);mcc_generated_files/oledC.c: 113: {;mcc_generated_files/oledC.c: 114:     uint8_t pa
      +                          yload[2];;mcc_generated_files/oledC.c: 115:     payload[0] = min > 95 ? 95 : min;
  6318  011322  0E60               	movlw	96
  6319  011324  6013               	cpfslt	oledC_setRowAddressBounds@min^(0+1280),c
  6320  011326  EF97  F089         	goto	u1251
  6321  01132A  EF99  F089         	goto	u1250
  6322  01132E                     u1251:
  6323  01132E  EF9E  F089         	goto	l2667
  6324  011332                     u1250:
  6325  011332  C513  F50F         	movff	oledC_setRowAddressBounds@min,_oledC_setRowAddressBounds$1636
  6326  011336  6A10               	clrf	(_oledC_setRowAddressBounds$1636+1)^(0+1280),c
  6327  011338  EFA2  F089         	goto	l2669
  6328  01133C                     l2667:
  6329  01133C  0E00               	movlw	0
  6330  01133E  6E10               	movwf	(_oledC_setRowAddressBounds$1636+1)^(0+1280),c
  6331  011340  0E5F               	movlw	95
  6332  011342  6E0F               	movwf	_oledC_setRowAddressBounds$1636^(0+1280),c
  6333  011344                     l2669:
  6334  011344  C50F  F50D         	movff	_oledC_setRowAddressBounds$1636,oledC_setRowAddressBounds@payload
  6335  011348                     
  6336                           ;mcc_generated_files/oledC.c: 116:     payload[1] = max > 95 ? 95 : max;
  6337  011348  0E60               	movlw	96
  6338  01134A  600C               	cpfslt	oledC_setRowAddressBounds@max^(0+1280),c
  6339  01134C  EFAA  F089         	goto	u1261
  6340  011350  EFAC  F089         	goto	u1260
  6341  011354                     u1261:
  6342  011354  EFB1  F089         	goto	l2675
  6343  011358                     u1260:
  6344  011358  C50C  F511         	movff	oledC_setRowAddressBounds@max,_oledC_setRowAddressBounds$1637
  6345  01135C  6A12               	clrf	(_oledC_setRowAddressBounds$1637+1)^(0+1280),c
  6346  01135E  EFB5  F089         	goto	l2677
  6347  011362                     l2675:
  6348  011362  0E00               	movlw	0
  6349  011364  6E12               	movwf	(_oledC_setRowAddressBounds$1637+1)^(0+1280),c
  6350  011366  0E5F               	movlw	95
  6351  011368  6E11               	movwf	_oledC_setRowAddressBounds$1637^(0+1280),c
  6352  01136A                     l2677:
  6353  01136A  C511  F50E         	movff	_oledC_setRowAddressBounds$1637,oledC_setRowAddressBounds@payload+1
  6354  01136E                     
  6355                           ;mcc_generated_files/oledC.c: 117:     oledC_sendCommand(OLEDC_CMD_SET_ROW_ADDRESS, payl
      +                          oad, 2);
  6356  01136E  0E0D               	movlw	low oledC_setRowAddressBounds@payload
  6357  011370  6E08               	movwf	oledC_sendCommand@payload^(0+1280),c
  6358  011372  0E05               	movlw	high oledC_setRowAddressBounds@payload
  6359  011374  6E09               	movwf	(oledC_sendCommand@payload+1)^(0+1280),c
  6360  011376  0E02               	movlw	2
  6361  011378  6E0A               	movwf	oledC_sendCommand@payload_size^(0+1280),c
  6362  01137A  0E75               	movlw	117
  6363  01137C  ECE1  F083         	call	_oledC_sendCommand
  6364  011380  0012               	return		;funcret
  6365  011382                     __end_of_oledC_setRowAddressBounds:
  6366                           	callstack 0
  6367                           
  6368 ;; *************** function _oledC_setColumnAddressBounds *****************
  6369 ;; Defined at:
  6370 ;;		line 121 in file "mcc_generated_files/oledC.c"
  6371 ;; Parameters:    Size  Location     Type
  6372 ;;  min             1    wreg     unsigned char 
  6373 ;;  max             1   11[COMRAM] unsigned char 
  6374 ;; Auto vars:     Size  Location     Type
  6375 ;;  min             1   18[COMRAM] unsigned char 
  6376 ;;  payload         2   16[COMRAM] unsigned char [2]
  6377 ;; Return value:  Size  Location     Type
  6378 ;;                  1    wreg      void 
  6379 ;; Registers used:
  6380 ;;		wreg, fsr2l, fsr2h, status,2, status,0, pclath, tosl, tblptrl, tblptrh, tblptru, prodl, prodh, cstack
  6381 ;; Tracked objects:
  6382 ;;		On entry : 0/0
  6383 ;;		On exit  : 0/0
  6384 ;;		Unchanged: 0/0
  6385 ;; Data sizes:     COMRAM   BANK5   BANK6   BANK7   BANK8   BANK9  BANK10  BANK11  BANK12  BANK13  BANK14  BANK15  BANK1
      +6  BANK17  BANK18  BANK19  BANK20  BANK21  BANK22  BANK23  BANK24  BANK25  BANK26  BANK27  BANK28  BANK29  BANK30  BANK3
      +1  BANK32  BANK33  BANK34  BANK35  BANK36  BANK37
  6386 ;;      Params:         1       0       0       0       0       0       0       0       0       0       0       0       
      +0       0       0       0       0       0       0       0       0       0       0       0       0       0       0       
      +0       0       0       0       0       0       0
  6387 ;;      Locals:         7       0       0       0       0       0       0       0       0       0       0       0       
      +0       0       0       0       0       0       0       0       0       0       0       0       0       0       0       
      +0       0       0       0       0       0       0
  6388 ;;      Temps:          0       0       0       0       0       0       0       0       0       0       0       0       
      +0       0       0       0       0       0       0       0       0       0       0       0       0       0       0       
      +0       0       0       0       0       0       0
  6389 ;;      Totals:         8       0       0       0       0       0       0       0       0       0       0       0       
      +0       0       0       0       0       0       0       0       0       0       0       0       0       0       0       
      +0       0       0       0       0       0       0
  6390 ;;Total ram usage:        8 bytes
  6391 ;; Hardware stack levels used: 1
  6392 ;; Hardware stack levels required when called: 3
  6393 ;; This function calls:
  6394 ;;		_oledC_sendCommand
  6395 ;; This function is called by:
  6396 ;;		_oledC_DrawPoint
  6397 ;;		_oledC_DrawRectangle
  6398 ;;		_oledC_clearScreen
  6399 ;;		_oledC_setup
  6400 ;; This function uses a non-reentrant model
  6401 ;;
  6402                           
  6403                           	psect	text38
  6404  01110A                     __ptext38:
  6405                           	callstack 0
  6406  01110A                     _oledC_setColumnAddressBounds:
  6407                           	callstack 122
  6408                           
  6409                           ;incstack = 0
  6410                           ;oledC_setColumnAddressBounds@min stored from wreg
  6411  01110A  6E13               	movwf	oledC_setColumnAddressBounds@min^(0+1280),c
  6412  01110C                     
  6413                           ;mcc_generated_files/oledC.c: 121: void oledC_setColumnAddressBounds(uint8_t min, uint8_
      +                          t max);mcc_generated_files/oledC.c: 122: {;mcc_generated_files/oledC.c: 123:     min = m
      +                          in > 95 ? 95 : min;
  6414  01110C  0E60               	movlw	96
  6415  01110E  6013               	cpfslt	oledC_setColumnAddressBounds@min^(0+1280),c
  6416  011110  EF8C  F088         	goto	u1231
  6417  011114  EF8E  F088         	goto	u1230
  6418  011118                     u1231:
  6419  011118  EF93  F088         	goto	l2645
  6420  01111C                     u1230:
  6421  01111C  C513  F50D         	movff	oledC_setColumnAddressBounds@min,_oledC_setColumnAddressBounds$1642
  6422  011120  6A0E               	clrf	(_oledC_setColumnAddressBounds$1642+1)^(0+1280),c
  6423  011122  EF97  F088         	goto	l2647
  6424  011126                     l2645:
  6425  011126  0E00               	movlw	0
  6426  011128  6E0E               	movwf	(_oledC_setColumnAddressBounds$1642+1)^(0+1280),c
  6427  01112A  0E5F               	movlw	95
  6428  01112C  6E0D               	movwf	_oledC_setColumnAddressBounds$1642^(0+1280),c
  6429  01112E                     l2647:
  6430  01112E  C50D  F513         	movff	_oledC_setColumnAddressBounds$1642,oledC_setColumnAddressBounds@min
  6431  011132                     
  6432                           ;mcc_generated_files/oledC.c: 124:     max = max > 95 ? 95 : max;
  6433  011132  0E60               	movlw	96
  6434  011134  600C               	cpfslt	oledC_setColumnAddressBounds@max^(0+1280),c
  6435  011136  EF9F  F088         	goto	u1241
  6436  01113A  EFA1  F088         	goto	u1240
  6437  01113E                     u1241:
  6438  01113E  EFA6  F088         	goto	l2653
  6439  011142                     u1240:
  6440  011142  C50C  F50F         	movff	oledC_setColumnAddressBounds@max,_oledC_setColumnAddressBounds$1643
  6441  011146  6A10               	clrf	(_oledC_setColumnAddressBounds$1643+1)^(0+1280),c
  6442  011148  EFAA  F088         	goto	l2655
  6443  01114C                     l2653:
  6444  01114C  0E00               	movlw	0
  6445  01114E  6E10               	movwf	(_oledC_setColumnAddressBounds$1643+1)^(0+1280),c
  6446  011150  0E5F               	movlw	95
  6447  011152  6E0F               	movwf	_oledC_setColumnAddressBounds$1643^(0+1280),c
  6448  011154                     l2655:
  6449  011154  C50F  F50C         	movff	_oledC_setColumnAddressBounds$1643,oledC_setColumnAddressBounds@max
  6450  011158                     
  6451                           ;mcc_generated_files/oledC.c: 125:     uint8_t payload[2];;mcc_generated_files/oledC.c: 
      +                          126:     payload[0] = 16+min;
  6452  011158  5013               	movf	oledC_setColumnAddressBounds@min^(0+1280),w,c
  6453  01115A  0F10               	addlw	16
  6454  01115C  6E11               	movwf	oledC_setColumnAddressBounds@payload^(0+1280),c
  6455  01115E                     
  6456                           ;mcc_generated_files/oledC.c: 127:     payload[1] = max + 16;
  6457  01115E  500C               	movf	oledC_setColumnAddressBounds@max^(0+1280),w,c
  6458  011160  0F10               	addlw	16
  6459  011162  6E12               	movwf	(oledC_setColumnAddressBounds@payload+1)^(0+1280),c
  6460  011164                     
  6461                           ;mcc_generated_files/oledC.c: 128:     oledC_sendCommand(OLEDC_CMD_SET_COLUMN_ADDRESS, p
      +                          ayload, 2);
  6462  011164  0E11               	movlw	low oledC_setColumnAddressBounds@payload
  6463  011166  6E08               	movwf	oledC_sendCommand@payload^(0+1280),c
  6464  011168  0E05               	movlw	high oledC_setColumnAddressBounds@payload
  6465  01116A  6E09               	movwf	(oledC_sendCommand@payload+1)^(0+1280),c
  6466  01116C  0E02               	movlw	2
  6467  01116E  6E0A               	movwf	oledC_sendCommand@payload_size^(0+1280),c
  6468  011170  0E15               	movlw	21
  6469  011172  ECE1  F083         	call	_oledC_sendCommand
  6470  011176  0012               	return		;funcret
  6471  011178                     __end_of_oledC_setColumnAddressBounds:
  6472                           	callstack 0
  6473                           
  6474 ;; *************** function _oledC_sendColorInt *****************
  6475 ;; Defined at:
  6476 ;;		line 189 in file "mcc_generated_files/oledC.c"
  6477 ;; Parameters:    Size  Location     Type
  6478 ;;  raw             2   11[COMRAM] unsigned short 
  6479 ;; Auto vars:     Size  Location     Type
  6480 ;;		None
  6481 ;; Return value:  Size  Location     Type
  6482 ;;                  1    wreg      void 
  6483 ;; Registers used:
  6484 ;;		wreg, fsr2l, fsr2h, status,2, status,0, pclath, tosl, tblptrl, tblptrh, tblptru, prodl, prodh, cstack
  6485 ;; Tracked objects:
  6486 ;;		On entry : 0/0
  6487 ;;		On exit  : 0/0
  6488 ;;		Unchanged: 0/0
  6489 ;; Data sizes:     COMRAM   BANK5   BANK6   BANK7   BANK8   BANK9  BANK10  BANK11  BANK12  BANK13  BANK14  BANK15  BANK1
      +6  BANK17  BANK18  BANK19  BANK20  BANK21  BANK22  BANK23  BANK24  BANK25  BANK26  BANK27  BANK28  BANK29  BANK30  BANK3
      +1  BANK32  BANK33  BANK34  BANK35  BANK36  BANK37
  6490 ;;      Params:         2       0       0       0       0       0       0       0       0       0       0       0       
      +0       0       0       0       0       0       0       0       0       0       0       0       0       0       0       
      +0       0       0       0       0       0       0
  6491 ;;      Locals:         0       0       0       0       0       0       0       0       0       0       0       0       
      +0       0       0       0       0       0       0       0       0       0       0       0       0       0       0       
      +0       0       0       0       0       0       0
  6492 ;;      Temps:          0       0       0       0       0       0       0       0       0       0       0       0       
      +0       0       0       0       0       0       0       0       0       0       0       0       0       0       0       
      +0       0       0       0       0       0       0
  6493 ;;      Totals:         2       0       0       0       0       0       0       0       0       0       0       0       
      +0       0       0       0       0       0       0       0       0       0       0       0       0       0       0       
      +0       0       0       0       0       0       0
  6494 ;;Total ram usage:        2 bytes
  6495 ;; Hardware stack levels used: 1
  6496 ;; Hardware stack levels required when called: 4
  6497 ;; This function calls:
  6498 ;;		_exchangeTwoBytes
  6499 ;;		_oledC_startWritingDisplay
  6500 ;; This function is called by:
  6501 ;;		_oledC_DrawPoint
  6502 ;;		_oledC_DrawRectangle
  6503 ;;		_oledC_clearScreen
  6504 ;;		_oledC_sendColor
  6505 ;; This function uses a non-reentrant model
  6506 ;;
  6507                           
  6508                           	psect	text39
  6509  01173A                     __ptext39:
  6510                           	callstack 0
  6511  01173A                     _oledC_sendColorInt:
  6512                           	callstack 116
  6513  01173A                     
  6514                           ;mcc_generated_files/oledC.c: 189: void oledC_sendColorInt(uint16_t raw);mcc_generated_f
      +                          iles/oledC.c: 190: {;mcc_generated_files/oledC.c: 191:     if(streamingMode != WRITESTRE
      +                          AM)
  6515  01173A  044F               	decf	_streamingMode^(0+1280),w,c
  6516  01173C  B4D8               	btfsc	status,2,c
  6517  01173E  EFA3  F08B         	goto	u1271
  6518  011742  EFA5  F08B         	goto	u1270
  6519  011746                     u1271:
  6520  011746  EFA7  F08B         	goto	l2685
  6521  01174A                     u1270:
  6522  01174A                     
  6523                           ;mcc_generated_files/oledC.c: 192:     {;mcc_generated_files/oledC.c: 193:         oledC
      +                          _startWritingDisplay();
  6524  01174A  EC5E  F08C         	call	_oledC_startWritingDisplay	;wreg free
  6525  01174E                     l2685:
  6526                           
  6527                           ;mcc_generated_files/oledC.c: 195:     if(streamingMode != WRITESTREAM)
  6528  01174E  044F               	decf	_streamingMode^(0+1280),w,c
  6529  011750  B4D8               	btfsc	status,2,c
  6530  011752  EFAD  F08B         	goto	u1281
  6531  011756  EFAF  F08B         	goto	u1280
  6532  01175A                     u1281:
  6533  01175A  EFB1  F08B         	goto	l2689
  6534  01175E                     u1280:
  6535  01175E  EFB6  F08B         	goto	l676
  6536  011762                     l2689:
  6537                           
  6538                           ;mcc_generated_files/oledC.c: 199:     exchangeTwoBytes(raw >> 8, raw & 0x00FF);
  6539  011762  C50C  F503         	movff	oledC_sendColorInt@raw,exchangeTwoBytes@byte2
  6540  011766  500D               	movf	(oledC_sendColorInt@raw+1)^(0+1280),w,c
  6541  011768  EC44  F085         	call	_exchangeTwoBytes
  6542  01176C                     l676:
  6543  01176C  0012               	return		;funcret
  6544  01176E                     __end_of_oledC_sendColorInt:
  6545                           	callstack 0
  6546                           
  6547 ;; *************** function _oledC_startWritingDisplay *****************
  6548 ;; Defined at:
  6549 ;;		line 170 in file "mcc_generated_files/oledC.c"
  6550 ;; Parameters:    Size  Location     Type
  6551 ;;		None
  6552 ;; Auto vars:     Size  Location     Type
  6553 ;;		None
  6554 ;; Return value:  Size  Location     Type
  6555 ;;                  1    wreg      void 
  6556 ;; Registers used:
  6557 ;;		wreg, fsr2l, fsr2h, status,2, status,0, pclath, tosl, tblptrl, tblptrh, tblptru, prodl, prodh, cstack
  6558 ;; Tracked objects:
  6559 ;;		On entry : 0/0
  6560 ;;		On exit  : 0/0
  6561 ;;		Unchanged: 0/0
  6562 ;; Data sizes:     COMRAM   BANK5   BANK6   BANK7   BANK8   BANK9  BANK10  BANK11  BANK12  BANK13  BANK14  BANK15  BANK1
      +6  BANK17  BANK18  BANK19  BANK20  BANK21  BANK22  BANK23  BANK24  BANK25  BANK26  BANK27  BANK28  BANK29  BANK30  BANK3
      +1  BANK32  BANK33  BANK34  BANK35  BANK36  BANK37
  6563 ;;      Params:         0       0       0       0       0       0       0       0       0       0       0       0       
      +0       0       0       0       0       0       0       0       0       0       0       0       0       0       0       
      +0       0       0       0       0       0       0
  6564 ;;      Locals:         0       0       0       0       0       0       0       0       0       0       0       0       
      +0       0       0       0       0       0       0       0       0       0       0       0       0       0       0       
      +0       0       0       0       0       0       0
  6565 ;;      Temps:          0       0       0       0       0       0       0       0       0       0       0       0       
      +0       0       0       0       0       0       0       0       0       0       0       0       0       0       0       
      +0       0       0       0       0       0       0
  6566 ;;      Totals:         0       0       0       0       0       0       0       0       0       0       0       0       
      +0       0       0       0       0       0       0       0       0       0       0       0       0       0       0       
      +0       0       0       0       0       0       0
  6567 ;;Total ram usage:        0 bytes
  6568 ;; Hardware stack levels used: 1
  6569 ;; Hardware stack levels required when called: 3
  6570 ;; This function calls:
  6571 ;;		_oledC_sendCommand
  6572 ;; This function is called by:
  6573 ;;		_oledC_sendColorInt
  6574 ;; This function uses a non-reentrant model
  6575 ;;
  6576                           
  6577                           	psect	text40
  6578  0118BC                     __ptext40:
  6579                           	callstack 0
  6580  0118BC                     _oledC_startWritingDisplay:
  6581                           	callstack 116
  6582  0118BC                     
  6583                           ;mcc_generated_files/oledC.c: 172:     oledC_sendCommand(OLEDC_CMD_WRITE_RAM, ((void*)0)
      +                          , 0);
  6584  0118BC  0E00               	movlw	0
  6585  0118BE  6E08               	movwf	oledC_sendCommand@payload^(0+1280),c
  6586  0118C0  0E00               	movlw	0
  6587  0118C2  6E09               	movwf	(oledC_sendCommand@payload+1)^(0+1280),c
  6588  0118C4  0E00               	movlw	0
  6589  0118C6  6E0A               	movwf	oledC_sendCommand@payload_size^(0+1280),c
  6590  0118C8  0E5C               	movlw	92
  6591  0118CA  ECE1  F083         	call	_oledC_sendCommand
  6592  0118CE                     
  6593                           ;mcc_generated_files/oledC.c: 173:     LATDbits.LATD4 = 0;
  6594  0118CE  98C1               	bcf	193,4,c	;volatile
  6595  0118D0                     
  6596                           ;mcc_generated_files/oledC.c: 174:     LATBbits.LATB0 = 1;
  6597  0118D0  80BF               	bsf	191,0,c	;volatile
  6598  0118D2  0012               	return		;funcret
  6599  0118D4                     __end_of_oledC_startWritingDisplay:
  6600                           	callstack 0
  6601                           
  6602 ;; *************** function _oledC_sendCommand *****************
  6603 ;; Defined at:
  6604 ;;		line 92 in file "mcc_generated_files/oledC.c"
  6605 ;; Parameters:    Size  Location     Type
  6606 ;;  cmd             1    wreg     enum E41
  6607 ;;  payload         2    7[COMRAM] PTR unsigned char 
  6608 ;;		 -> oledC_setDisplayOrientation@payload(1), oledC_setColumnAddressBounds@payload(2), oledC_setRowAddressBounds@paylo
      +ad(2), NULL(0), 
  6609 ;;  payload_size    1    9[COMRAM] unsigned char 
  6610 ;; Auto vars:     Size  Location     Type
  6611 ;;  cmd             1   10[COMRAM] enum E41
  6612 ;; Return value:  Size  Location     Type
  6613 ;;                  1    wreg      void 
  6614 ;; Registers used:
  6615 ;;		wreg, fsr2l, fsr2h, status,2, status,0, pclath, tosl, tblptrl, tblptrh, tblptru, prodl, prodh, cstack
  6616 ;; Tracked objects:
  6617 ;;		On entry : 0/0
  6618 ;;		On exit  : 0/0
  6619 ;;		Unchanged: 0/0
  6620 ;; Data sizes:     COMRAM   BANK5   BANK6   BANK7   BANK8   BANK9  BANK10  BANK11  BANK12  BANK13  BANK14  BANK15  BANK1
      +6  BANK17  BANK18  BANK19  BANK20  BANK21  BANK22  BANK23  BANK24  BANK25  BANK26  BANK27  BANK28  BANK29  BANK30  BANK3
      +1  BANK32  BANK33  BANK34  BANK35  BANK36  BANK37
  6621 ;;      Params:         3       0       0       0       0       0       0       0       0       0       0       0       
      +0       0       0       0       0       0       0       0       0       0       0       0       0       0       0       
      +0       0       0       0       0       0       0
  6622 ;;      Locals:         1       0       0       0       0       0       0       0       0       0       0       0       
      +0       0       0       0       0       0       0       0       0       0       0       0       0       0       0       
      +0       0       0       0       0       0       0
  6623 ;;      Temps:          0       0       0       0       0       0       0       0       0       0       0       0       
      +0       0       0       0       0       0       0       0       0       0       0       0       0       0       0       
      +0       0       0       0       0       0       0
  6624 ;;      Totals:         4       0       0       0       0       0       0       0       0       0       0       0       
      +0       0       0       0       0       0       0       0       0       0       0       0       0       0       0       
      +0       0       0       0       0       0       0
  6625 ;;Total ram usage:        4 bytes
  6626 ;; Hardware stack levels used: 1
  6627 ;; Hardware stack levels required when called: 2
  6628 ;; This function calls:
  6629 ;;		_SPI1_Close
  6630 ;;		_SPI1_ExchangeByte
  6631 ;;		_SPI1_WriteBlock
  6632 ;;		_oledC_open
  6633 ;;		_startStreamingIfNeeded
  6634 ;; This function is called by:
  6635 ;;		_oledC_setRowAddressBounds
  6636 ;;		_oledC_setColumnAddressBounds
  6637 ;;		_oledC_setSleepMode
  6638 ;;		_oledC_setDisplayOrientation
  6639 ;;		_oledC_startWritingDisplay
  6640 ;;		_oledC_startReadingDisplay
  6641 ;; This function uses a non-reentrant model
  6642 ;;
  6643                           
  6644                           	psect	text41
  6645  0107C2                     __ptext41:
  6646                           	callstack 0
  6647  0107C2                     _oledC_sendCommand:
  6648                           	callstack 122
  6649                           
  6650                           ;incstack = 0
  6651                           ;oledC_sendCommand@cmd stored from wreg
  6652  0107C2  6E0B               	movwf	oledC_sendCommand@cmd^(0+1280),c
  6653  0107C4                     
  6654                           ;mcc_generated_files/oledC.c: 92: void oledC_sendCommand(OLEDC_COMMAND cmd, uint8_t *pay
      +                          load, uint8_t payload_size);mcc_generated_files/oledC.c: 93: {;mcc_generated_files/oledC
      +                          .c: 94:     if(!spiMaster[oledC].spiOpen())
  6655  0107C4  0E78               	movlw	low (_spiMaster+3)
  6656  0107C6  6EF6               	movwf	tblptrl,c
  6657  0107C8  0EFC               	movlw	high (_spiMaster+3)
  6658  0107CA  6EF7               	movwf	tblptrh,c
  6659  0107CC                     	if	0	;tblptru may be non-zero
  6660  0107CC                     	endif
  6661  0107CC                     	if	1	;Program memory is > 0xFFFF, there are 3 active tblptr bytes
  6662  0107CC  0E00               	movlw	low (__mediumconst shr (0+16))
  6663  0107CE  6EF8               	movwf	tblptru,c
  6664  0107D0                     	endif
  6665  0107D0  D802               	call	u1128
  6666  0107D2  EFF8  F083         	goto	u1129
  6667  0107D6                     u1128:
  6668  0107D6  0005               	push	
  6669  0107D8  6EFA               	movwf	pclath,c
  6670  0107DA  0009               	tblrd		*+
  6671  0107DC  50F5               	movf	tablat,w,c
  6672  0107DE  6EFD               	movwf	tosl,c
  6673  0107E0  0009               	tblrd		*+
  6674  0107E2  50F5               	movf	tablat,w,c
  6675  0107E4  6EFE               	movwf	tosh,c
  6676  0107E6  0009               	tblrd		*+
  6677  0107E8  50F5               	movf	tablat,w,c
  6678  0107EA  6EFF               	movwf	tosu,c
  6679  0107EC  50FA               	movf	pclath,w,c
  6680  0107EE  0012               	return		;indir
  6681  0107F0                     u1129:
  6682  0107F0  0900               	iorlw	0
  6683  0107F2  A4D8               	btfss	status,2,c
  6684  0107F4  EFFE  F083         	goto	u1131
  6685  0107F8  EF00  F084         	goto	u1130
  6686  0107FC                     u1131:
  6687  0107FC  EF02  F084         	goto	l617
  6688  010800                     u1130:
  6689  010800  EF5C  F084         	goto	l618
  6690  010804                     l617:
  6691                           
  6692                           ;mcc_generated_files/oledC.c: 98:     LATDbits.LATD4 = 0;
  6693  010804  98C1               	bcf	193,4,c	;volatile
  6694                           
  6695                           ;mcc_generated_files/oledC.c: 99:     LATBbits.LATB0 = 0;
  6696  010806  90BF               	bcf	191,0,c	;volatile
  6697  010808                     
  6698                           ;mcc_generated_files/oledC.c: 100:     spiMaster[oledC].exchangeByte(cmd);
  6699  010808  0E7B               	movlw	low (_spiMaster+6)
  6700  01080A  6EF6               	movwf	tblptrl,c
  6701  01080C  0EFC               	movlw	high (_spiMaster+6)
  6702  01080E  6EF7               	movwf	tblptrh,c
  6703  010810                     	if	0	;tblptru may be non-zero
  6704  010810                     	endif
  6705  010810                     	if	1	;Program memory is > 0xFFFF, there are 3 active tblptr bytes
  6706  010810  0E00               	movlw	low (__mediumconst shr (0+16))
  6707  010812  6EF8               	movwf	tblptru,c
  6708  010814                     	endif
  6709  010814  D802               	call	u1148
  6710  010816  EF1B  F084         	goto	u1149
  6711  01081A                     u1148:
  6712  01081A  0005               	push	
  6713  01081C  6EFA               	movwf	pclath,c
  6714  01081E  0009               	tblrd		*+
  6715  010820  50F5               	movf	tablat,w,c
  6716  010822  6EFD               	movwf	tosl,c
  6717  010824  0009               	tblrd		*+
  6718  010826  50F5               	movf	tablat,w,c
  6719  010828  6EFE               	movwf	tosh,c
  6720  01082A  0009               	tblrd		*+
  6721  01082C  50F5               	movf	tablat,w,c
  6722  01082E  6EFF               	movwf	tosu,c
  6723  010830  50FA               	movf	pclath,w,c
  6724  010832  500B               	movf	oledC_sendCommand@cmd^(0+1280),w,c
  6725  010834  0012               	return		;indir
  6726  010836                     u1149:
  6727  010836                     
  6728                           ;mcc_generated_files/oledC.c: 101:     if(payload_size > 0)
  6729  010836  500A               	movf	oledC_sendCommand@payload_size^(0+1280),w,c
  6730  010838  B4D8               	btfsc	status,2,c
  6731  01083A  EF21  F084         	goto	u1151
  6732  01083E  EF23  F084         	goto	u1150
  6733  010842                     u1151:
  6734  010842  EF42  F084         	goto	l2617
  6735  010846                     u1150:
  6736  010846                     
  6737                           ;mcc_generated_files/oledC.c: 102:     {;mcc_generated_files/oledC.c: 103:         LATBb
      +                          its.LATB0 = 1;
  6738  010846  80BF               	bsf	191,0,c	;volatile
  6739  010848                     
  6740                           ;mcc_generated_files/oledC.c: 104:         spiMaster[oledC].writeBlock(payload, payload_
      +                          size);
  6741  010848  C508  F502         	movff	oledC_sendCommand@payload,SPI1_WriteBlock@block
  6742  01084C  C509  F503         	movff	oledC_sendCommand@payload+1,SPI1_WriteBlock@block+1
  6743  010850  C50A  F504         	movff	oledC_sendCommand@payload_size,SPI1_WriteBlock@blockSize
  6744  010854  6A05               	clrf	(SPI1_WriteBlock@blockSize+1)^(0+1280),c
  6745  010856  0E81               	movlw	low (_spiMaster+12)
  6746  010858  6EF6               	movwf	tblptrl,c
  6747  01085A  0EFC               	movlw	high (_spiMaster+12)
  6748  01085C  6EF7               	movwf	tblptrh,c
  6749  01085E                     	if	0	;tblptru may be non-zero
  6750  01085E                     	endif
  6751  01085E                     	if	1	;Program memory is > 0xFFFF, there are 3 active tblptr bytes
  6752  01085E  0E00               	movlw	low (__mediumconst shr (0+16))
  6753  010860  6EF8               	movwf	tblptru,c
  6754  010862                     	endif
  6755  010862  D802               	call	u1168
  6756  010864  EF41  F084         	goto	u1169
  6757  010868                     u1168:
  6758  010868  0005               	push	
  6759  01086A  6EFA               	movwf	pclath,c
  6760  01086C  0009               	tblrd		*+
  6761  01086E  50F5               	movf	tablat,w,c
  6762  010870  6EFD               	movwf	tosl,c
  6763  010872  0009               	tblrd		*+
  6764  010874  50F5               	movf	tablat,w,c
  6765  010876  6EFE               	movwf	tosh,c
  6766  010878  0009               	tblrd		*+
  6767  01087A  50F5               	movf	tablat,w,c
  6768  01087C  6EFF               	movwf	tosu,c
  6769  01087E  50FA               	movf	pclath,w,c
  6770  010880  0012               	return		;indir
  6771  010882                     u1169:
  6772  010882                     
  6773                           ;mcc_generated_files/oledC.c: 105:         LATBbits.LATB0 = 0;
  6774  010882  90BF               	bcf	191,0,c	;volatile
  6775  010884                     l2617:
  6776                           
  6777                           ;mcc_generated_files/oledC.c: 107:     LATDbits.LATD4 = 1;
  6778  010884  88C1               	bsf	193,4,c	;volatile
  6779  010886                     
  6780                           ;mcc_generated_files/oledC.c: 108:     spiMaster[oledC].spiClose();
  6781  010886  0E75               	movlw	low _spiMaster
  6782  010888  6EF6               	movwf	tblptrl,c
  6783  01088A                     	if	1	;There is more than 1 active tblptr byte
  6784  01088A  0EFC               	movlw	high _spiMaster
  6785  01088C  6EF7               	movwf	tblptrh,c
  6786  01088E                     	endif
  6787  01088E                     	if	1	;There are 3 active tblptr bytes
  6788  01088E  0E00               	movlw	low (_spiMaster shr (0+16))
  6789  010890  6EF8               	movwf	tblptru,c
  6790  010892                     	endif
  6791  010892  D802               	call	u1178
  6792  010894  EF59  F084         	goto	u1179
  6793  010898                     u1178:
  6794  010898  0005               	push	
  6795  01089A  6EFA               	movwf	pclath,c
  6796  01089C  0009               	tblrd		*+
  6797  01089E  50F5               	movf	tablat,w,c
  6798  0108A0  6EFD               	movwf	tosl,c
  6799  0108A2  0009               	tblrd		*+
  6800  0108A4  50F5               	movf	tablat,w,c
  6801  0108A6  6EFE               	movwf	tosh,c
  6802  0108A8  0009               	tblrd		*+
  6803  0108AA  50F5               	movf	tablat,w,c
  6804  0108AC  6EFF               	movwf	tosu,c
  6805  0108AE  50FA               	movf	pclath,w,c
  6806  0108B0  0012               	return		;indir
  6807  0108B2                     u1179:
  6808  0108B2                     
  6809                           ;mcc_generated_files/oledC.c: 109:     startStreamingIfNeeded(cmd);
  6810  0108B2  500B               	movf	oledC_sendCommand@cmd^(0+1280),w,c
  6811  0108B4  EC72  F08A         	call	_startStreamingIfNeeded
  6812  0108B8                     l618:
  6813  0108B8  0012               	return		;funcret
  6814  0108BA                     __end_of_oledC_sendCommand:
  6815                           	callstack 0
  6816                           
  6817 ;; *************** function _startStreamingIfNeeded *****************
  6818 ;; Defined at:
  6819 ;;		line 63 in file "mcc_generated_files/oledC.c"
  6820 ;; Parameters:    Size  Location     Type
  6821 ;;  cmd             1    wreg     enum E41
  6822 ;; Auto vars:     Size  Location     Type
  6823 ;;  cmd             1    0[COMRAM] enum E41
  6824 ;; Return value:  Size  Location     Type
  6825 ;;                  1    wreg      void 
  6826 ;; Registers used:
  6827 ;;		wreg, status,2, status,0
  6828 ;; Tracked objects:
  6829 ;;		On entry : 0/0
  6830 ;;		On exit  : 0/0
  6831 ;;		Unchanged: 0/0
  6832 ;; Data sizes:     COMRAM   BANK5   BANK6   BANK7   BANK8   BANK9  BANK10  BANK11  BANK12  BANK13  BANK14  BANK15  BANK1
      +6  BANK17  BANK18  BANK19  BANK20  BANK21  BANK22  BANK23  BANK24  BANK25  BANK26  BANK27  BANK28  BANK29  BANK30  BANK3
      +1  BANK32  BANK33  BANK34  BANK35  BANK36  BANK37
  6833 ;;      Params:         0       0       0       0       0       0       0       0       0       0       0       0       
      +0       0       0       0       0       0       0       0       0       0       0       0       0       0       0       
      +0       0       0       0       0       0       0
  6834 ;;      Locals:         1       0       0       0       0       0       0       0       0       0       0       0       
      +0       0       0       0       0       0       0       0       0       0       0       0       0       0       0       
      +0       0       0       0       0       0       0
  6835 ;;      Temps:          0       0       0       0       0       0       0       0       0       0       0       0       
      +0       0       0       0       0       0       0       0       0       0       0       0       0       0       0       
      +0       0       0       0       0       0       0
  6836 ;;      Totals:         1       0       0       0       0       0       0       0       0       0       0       0       
      +0       0       0       0       0       0       0       0       0       0       0       0       0       0       0       
      +0       0       0       0       0       0       0
  6837 ;;Total ram usage:        1 bytes
  6838 ;; Hardware stack levels used: 1
  6839 ;; This function calls:
  6840 ;;		Nothing
  6841 ;; This function is called by:
  6842 ;;		_oledC_sendCommand
  6843 ;; This function uses a non-reentrant model
  6844 ;;
  6845                           
  6846                           	psect	text42
  6847  0114E4                     __ptext42:
  6848                           	callstack 0
  6849  0114E4                     _startStreamingIfNeeded:
  6850                           	callstack 123
  6851                           
  6852                           ;incstack = 0
  6853                           ;startStreamingIfNeeded@cmd stored from wreg
  6854  0114E4  6E01               	movwf	startStreamingIfNeeded@cmd^(0+1280),c
  6855  0114E6                     
  6856                           ;mcc_generated_files/oledC.c: 63: static void startStreamingIfNeeded(OLEDC_COMMAND cmd);
      +                          mcc_generated_files/oledC.c: 64: {;mcc_generated_files/oledC.c: 65:     if(cmd == OLEDC_
      +                          CMD_WRITE_RAM || cmd == OLEDC_CMD_READ_RAM)
  6857  0114E6  0E5C               	movlw	92
  6858  0114E8  1801               	xorwf	startStreamingIfNeeded@cmd^(0+1280),w,c
  6859  0114EA  B4D8               	btfsc	status,2,c
  6860  0114EC  EF7A  F08A         	goto	u1081
  6861  0114F0  EF7C  F08A         	goto	u1080
  6862  0114F4                     u1081:
  6863  0114F4  EF85  F08A         	goto	l2585
  6864  0114F8                     u1080:
  6865  0114F8  0E5D               	movlw	93
  6866  0114FA  1801               	xorwf	startStreamingIfNeeded@cmd^(0+1280),w,c
  6867  0114FC  A4D8               	btfss	status,2,c
  6868  0114FE  EF83  F08A         	goto	u1091
  6869  011502  EF85  F08A         	goto	u1090
  6870  011506                     u1091:
  6871  011506  EF96  F08A         	goto	l2591
  6872  01150A                     u1090:
  6873  01150A                     l2585:
  6874                           
  6875                           ;mcc_generated_files/oledC.c: 66:     {;mcc_generated_files/oledC.c: 67:         streami
      +                          ngMode = cmd == OLEDC_CMD_WRITE_RAM ? WRITESTREAM : READSTREAM;
  6876  01150A  0E5C               	movlw	92
  6877  01150C  1801               	xorwf	startStreamingIfNeeded@cmd^(0+1280),w,c
  6878  01150E  B4D8               	btfsc	status,2,c
  6879  011510  EF8C  F08A         	goto	u1101
  6880  011514  EF8E  F08A         	goto	u1100
  6881  011518                     u1101:
  6882  011518  EF92  F08A         	goto	l2589
  6883  01151C                     u1100:
  6884  01151C  0E02               	movlw	2
  6885  01151E  6E4F               	movwf	_streamingMode^(0+1280),c
  6886  011520  EF98  F08A         	goto	l607
  6887  011524                     l2589:
  6888  011524  0E01               	movlw	1
  6889  011526  6E4F               	movwf	_streamingMode^(0+1280),c
  6890  011528  EF98  F08A         	goto	l607
  6891  01152C                     l2591:
  6892                           
  6893                           ;mcc_generated_files/oledC.c: 70:     {;mcc_generated_files/oledC.c: 71:         streami
      +                          ngMode = NOSTREAM;
  6894  01152C  0E00               	movlw	0
  6895  01152E  6E4F               	movwf	_streamingMode^(0+1280),c
  6896  011530                     l607:
  6897  011530  0012               	return		;funcret
  6898  011532                     __end_of_startStreamingIfNeeded:
  6899                           	callstack 0
  6900                           
  6901 ;; *************** function _SPI1_WriteBlock *****************
  6902 ;; Defined at:
  6903 ;;		line 122 in file "mcc_generated_files/spi1.c"
  6904 ;; Parameters:    Size  Location     Type
  6905 ;;  block           2    1[COMRAM] PTR void 
  6906 ;;		 -> oledC_setDisplayOrientation@payload(1), oledC_setColumnAddressBounds@payload(2), oledC_setRowAddressBounds@paylo
      +ad(2), NULL(0), 
  6907 ;;  blockSize       2    3[COMRAM] unsigned int 
  6908 ;; Auto vars:     Size  Location     Type
  6909 ;;  data            2    5[COMRAM] PTR unsigned char 
  6910 ;;		 -> oledC_setDisplayOrientation@payload(1), oledC_setColumnAddressBounds@payload(2), oledC_setRowAddressBounds@paylo
      +ad(2), NULL(0), 
  6911 ;; Return value:  Size  Location     Type
  6912 ;;                  1    wreg      void 
  6913 ;; Registers used:
  6914 ;;		wreg, fsr2l, fsr2h, status,2, status,0, cstack
  6915 ;; Tracked objects:
  6916 ;;		On entry : 0/0
  6917 ;;		On exit  : 0/0
  6918 ;;		Unchanged: 0/0
  6919 ;; Data sizes:     COMRAM   BANK5   BANK6   BANK7   BANK8   BANK9  BANK10  BANK11  BANK12  BANK13  BANK14  BANK15  BANK1
      +6  BANK17  BANK18  BANK19  BANK20  BANK21  BANK22  BANK23  BANK24  BANK25  BANK26  BANK27  BANK28  BANK29  BANK30  BANK3
      +1  BANK32  BANK33  BANK34  BANK35  BANK36  BANK37
  6920 ;;      Params:         4       0       0       0       0       0       0       0       0       0       0       0       
      +0       0       0       0       0       0       0       0       0       0       0       0       0       0       0       
      +0       0       0       0       0       0       0
  6921 ;;      Locals:         2       0       0       0       0       0       0       0       0       0       0       0       
      +0       0       0       0       0       0       0       0       0       0       0       0       0       0       0       
      +0       0       0       0       0       0       0
  6922 ;;      Temps:          0       0       0       0       0       0       0       0       0       0       0       0       
      +0       0       0       0       0       0       0       0       0       0       0       0       0       0       0       
      +0       0       0       0       0       0       0
  6923 ;;      Totals:         6       0       0       0       0       0       0       0       0       0       0       0       
      +0       0       0       0       0       0       0       0       0       0       0       0       0       0       0       
      +0       0       0       0       0       0       0
  6924 ;;Total ram usage:        6 bytes
  6925 ;; Hardware stack levels used: 1
  6926 ;; Hardware stack levels required when called: 1
  6927 ;; This function calls:
  6928 ;;		_SPI1_ExchangeByte
  6929 ;; This function is called by:
  6930 ;;		_oledC_sendCommand
  6931 ;; This function uses a non-reentrant model
  6932 ;;
  6933                           
  6934                           	psect	text43
  6935  011650                     __ptext43:
  6936                           	callstack 0
  6937  011650                     _SPI1_WriteBlock:
  6938                           	callstack 122
  6939  011650                     
  6940                           ;mcc_generated_files/spi1.c: 122: void SPI1_WriteBlock(void *block, size_t blockSize);mc
      +                          c_generated_files/spi1.c: 123: {;mcc_generated_files/spi1.c: 124:     uint8_t *data = bl
      +                          ock;
  6941  011650  C502  F506         	movff	SPI1_WriteBlock@block,SPI1_WriteBlock@data
  6942  011654  C503  F507         	movff	SPI1_WriteBlock@block+1,SPI1_WriteBlock@data+1
  6943                           
  6944                           ;mcc_generated_files/spi1.c: 125:     while(blockSize--)
  6945  011658  EF39  F08B         	goto	l2601
  6946  01165C                     l2597:
  6947                           
  6948                           ;mcc_generated_files/spi1.c: 126:     {;mcc_generated_files/spi1.c: 127:         SPI1_Ex
      +                          changeByte(*data++);
  6949  01165C  0061  F418  F4D9   	movff	SPI1_WriteBlock@data,fsr2l
  6950  011662  0061  F41C  F4DA   	movff	SPI1_WriteBlock@data+1,fsr2h
  6951  011668  50DF               	movf	indf2,w,c
  6952  01166A  EC25  F08C         	call	_SPI1_ExchangeByte
  6953  01166E  4A06               	infsnz	SPI1_WriteBlock@data^(0+1280),f,c
  6954  011670  2A07               	incf	(SPI1_WriteBlock@data+1)^(0+1280),f,c
  6955  011672                     l2601:
  6956                           
  6957                           ;mcc_generated_files/spi1.c: 125:     while(blockSize--)
  6958  011672  0604               	decf	SPI1_WriteBlock@blockSize^(0+1280),f,c
  6959  011674  A0D8               	btfss	status,0,c
  6960  011676  0605               	decf	(SPI1_WriteBlock@blockSize+1)^(0+1280),f,c
  6961  011678  2804               	incf	SPI1_WriteBlock@blockSize^(0+1280),w,c
  6962  01167A  E106               	bnz	u1111
  6963  01167C  2805               	incf	(SPI1_WriteBlock@blockSize+1)^(0+1280),w,c
  6964  01167E  A4D8               	btfss	status,2,c
  6965  011680  EF44  F08B         	goto	u1111
  6966  011684  EF46  F08B         	goto	u1110
  6967  011688                     u1111:
  6968  011688  EF2E  F08B         	goto	l2597
  6969  01168C                     u1110:
  6970  01168C  0012               	return		;funcret
  6971  01168E                     __end_of_SPI1_WriteBlock:
  6972                           	callstack 0
  6973                           
  6974 ;; *************** function _exchangeTwoBytes *****************
  6975 ;; Defined at:
  6976 ;;		line 80 in file "mcc_generated_files/oledC.c"
  6977 ;; Parameters:    Size  Location     Type
  6978 ;;  byte1           1    wreg     unsigned char 
  6979 ;;  byte2           1    2[COMRAM] unsigned char 
  6980 ;; Auto vars:     Size  Location     Type
  6981 ;;  byte1           1    6[COMRAM] unsigned char 
  6982 ;; Return value:  Size  Location     Type
  6983 ;;                  2    2[COMRAM] unsigned short 
  6984 ;; Registers used:
  6985 ;;		wreg, status,2, status,0, pclath, tosl, tblptrl, tblptrh, tblptru, prodl, prodh, cstack
  6986 ;; Tracked objects:
  6987 ;;		On entry : 0/0
  6988 ;;		On exit  : 0/0
  6989 ;;		Unchanged: 0/0
  6990 ;; Data sizes:     COMRAM   BANK5   BANK6   BANK7   BANK8   BANK9  BANK10  BANK11  BANK12  BANK13  BANK14  BANK15  BANK1
      +6  BANK17  BANK18  BANK19  BANK20  BANK21  BANK22  BANK23  BANK24  BANK25  BANK26  BANK27  BANK28  BANK29  BANK30  BANK3
      +1  BANK32  BANK33  BANK34  BANK35  BANK36  BANK37
  6991 ;;      Params:         2       0       0       0       0       0       0       0       0       0       0       0       
      +0       0       0       0       0       0       0       0       0       0       0       0       0       0       0       
      +0       0       0       0       0       0       0
  6992 ;;      Locals:         1       0       0       0       0       0       0       0       0       0       0       0       
      +0       0       0       0       0       0       0       0       0       0       0       0       0       0       0       
      +0       0       0       0       0       0       0
  6993 ;;      Temps:          2       0       0       0       0       0       0       0       0       0       0       0       
      +0       0       0       0       0       0       0       0       0       0       0       0       0       0       0       
      +0       0       0       0       0       0       0
  6994 ;;      Totals:         5       0       0       0       0       0       0       0       0       0       0       0       
      +0       0       0       0       0       0       0       0       0       0       0       0       0       0       0       
      +0       0       0       0       0       0       0
  6995 ;;Total ram usage:        5 bytes
  6996 ;; Hardware stack levels used: 1
  6997 ;; Hardware stack levels required when called: 2
  6998 ;; This function calls:
  6999 ;;		_SPI1_Close
  7000 ;;		_SPI1_ExchangeByte
  7001 ;;		_oledC_open
  7002 ;; This function is called by:
  7003 ;;		_oledC_sendColorInt
  7004 ;;		_oledC_readColor
  7005 ;; This function uses a non-reentrant model
  7006 ;;
  7007                           
  7008                           	psect	text44
  7009  010A88                     __ptext44:
  7010                           	callstack 0
  7011  010A88                     _exchangeTwoBytes:
  7012                           	callstack 117
  7013                           
  7014                           ;incstack = 0
  7015                           ;exchangeTwoBytes@byte1 stored from wreg
  7016  010A88  6E07               	movwf	exchangeTwoBytes@byte1^(0+1280),c
  7017  010A8A                     
  7018                           ;mcc_generated_files/oledC.c: 80: static uint16_t exchangeTwoBytes(uint8_t byte1, uint8_
      +                          t byte2);mcc_generated_files/oledC.c: 81: {;mcc_generated_files/oledC.c: 82:     if(!spi
      +                          Master[oledC].spiOpen())
  7019  010A8A  0E78               	movlw	low (_spiMaster+3)
  7020  010A8C  6EF6               	movwf	tblptrl,c
  7021  010A8E  0EFC               	movlw	high (_spiMaster+3)
  7022  010A90  6EF7               	movwf	tblptrh,c
  7023  010A92                     	if	0	;tblptru may be non-zero
  7024  010A92                     	endif
  7025  010A92                     	if	1	;Program memory is > 0xFFFF, there are 3 active tblptr bytes
  7026  010A92  0E00               	movlw	low (__mediumconst shr (0+16))
  7027  010A94  6EF8               	movwf	tblptru,c
  7028  010A96                     	endif
  7029  010A96  D802               	call	u1188
  7030  010A98  EF5B  F085         	goto	u1189
  7031  010A9C                     u1188:
  7032  010A9C  0005               	push	
  7033  010A9E  6EFA               	movwf	pclath,c
  7034  010AA0  0009               	tblrd		*+
  7035  010AA2  50F5               	movf	tablat,w,c
  7036  010AA4  6EFD               	movwf	tosl,c
  7037  010AA6  0009               	tblrd		*+
  7038  010AA8  50F5               	movf	tablat,w,c
  7039  010AAA  6EFE               	movwf	tosh,c
  7040  010AAC  0009               	tblrd		*+
  7041  010AAE  50F5               	movf	tablat,w,c
  7042  010AB0  6EFF               	movwf	tosu,c
  7043  010AB2  50FA               	movf	pclath,w,c
  7044  010AB4  0012               	return		;indir
  7045  010AB6                     u1189:
  7046  010AB6  0900               	iorlw	0
  7047  010AB8  A4D8               	btfss	status,2,c
  7048  010ABA  EF61  F085         	goto	u1191
  7049  010ABE  EF63  F085         	goto	u1190
  7050  010AC2                     u1191:
  7051  010AC2  EF67  F085         	goto	l2627
  7052  010AC6                     u1190:
  7053  010AC6                     
  7054                           ;mcc_generated_files/oledC.c: 83:     {;mcc_generated_files/oledC.c: 84:         return 
      +                          0xFFFF;
  7055  010AC6  6803               	setf	?_exchangeTwoBytes^(0+1280),c
  7056  010AC8  6804               	setf	(?_exchangeTwoBytes+1)^(0+1280),c
  7057  010ACA  EFB3  F085         	goto	l614
  7058  010ACE                     l2627:
  7059                           
  7060                           ;mcc_generated_files/oledC.c: 86:     byte1 = spiMaster[oledC].exchangeByte(byte1);
  7061  010ACE  0E7B               	movlw	low (_spiMaster+6)
  7062  010AD0  6EF6               	movwf	tblptrl,c
  7063  010AD2  0EFC               	movlw	high (_spiMaster+6)
  7064  010AD4  6EF7               	movwf	tblptrh,c
  7065  010AD6                     	if	0	;tblptru may be non-zero
  7066  010AD6                     	endif
  7067  010AD6                     	if	1	;Program memory is > 0xFFFF, there are 3 active tblptr bytes
  7068  010AD6  0E00               	movlw	low (__mediumconst shr (0+16))
  7069  010AD8  6EF8               	movwf	tblptru,c
  7070  010ADA                     	endif
  7071  010ADA  D802               	call	u1208
  7072  010ADC  EF7E  F085         	goto	u1209
  7073  010AE0                     u1208:
  7074  010AE0  0005               	push	
  7075  010AE2  6EFA               	movwf	pclath,c
  7076  010AE4  0009               	tblrd		*+
  7077  010AE6  50F5               	movf	tablat,w,c
  7078  010AE8  6EFD               	movwf	tosl,c
  7079  010AEA  0009               	tblrd		*+
  7080  010AEC  50F5               	movf	tablat,w,c
  7081  010AEE  6EFE               	movwf	tosh,c
  7082  010AF0  0009               	tblrd		*+
  7083  010AF2  50F5               	movf	tablat,w,c
  7084  010AF4  6EFF               	movwf	tosu,c
  7085  010AF6  50FA               	movf	pclath,w,c
  7086  010AF8  5007               	movf	exchangeTwoBytes@byte1^(0+1280),w,c
  7087  010AFA  0012               	return		;indir
  7088  010AFC                     u1209:
  7089  010AFC  6E07               	movwf	exchangeTwoBytes@byte1^(0+1280),c
  7090                           
  7091                           ;mcc_generated_files/oledC.c: 87:     byte2 = spiMaster[oledC].exchangeByte(byte2);
  7092  010AFE  0E7B               	movlw	low (_spiMaster+6)
  7093  010B00  6EF6               	movwf	tblptrl,c
  7094  010B02  0EFC               	movlw	high (_spiMaster+6)
  7095  010B04  6EF7               	movwf	tblptrh,c
  7096  010B06                     	if	0	;tblptru may be non-zero
  7097  010B06                     	endif
  7098  010B06                     	if	1	;Program memory is > 0xFFFF, there are 3 active tblptr bytes
  7099  010B06  0E00               	movlw	low (__mediumconst shr (0+16))
  7100  010B08  6EF8               	movwf	tblptru,c
  7101  010B0A                     	endif
  7102  010B0A  D802               	call	u1218
  7103  010B0C  EF96  F085         	goto	u1219
  7104  010B10                     u1218:
  7105  010B10  0005               	push	
  7106  010B12  6EFA               	movwf	pclath,c
  7107  010B14  0009               	tblrd		*+
  7108  010B16  50F5               	movf	tablat,w,c
  7109  010B18  6EFD               	movwf	tosl,c
  7110  010B1A  0009               	tblrd		*+
  7111  010B1C  50F5               	movf	tablat,w,c
  7112  010B1E  6EFE               	movwf	tosh,c
  7113  010B20  0009               	tblrd		*+
  7114  010B22  50F5               	movf	tablat,w,c
  7115  010B24  6EFF               	movwf	tosu,c
  7116  010B26  50FA               	movf	pclath,w,c
  7117  010B28  5003               	movf	exchangeTwoBytes@byte2^(0+1280),w,c
  7118  010B2A  0012               	return		;indir
  7119  010B2C                     u1219:
  7120  010B2C  6E03               	movwf	exchangeTwoBytes@byte2^(0+1280),c
  7121  010B2E                     
  7122                           ;mcc_generated_files/oledC.c: 88:     spiMaster[oledC].spiClose();
  7123  010B2E  0E75               	movlw	low _spiMaster
  7124  010B30  6EF6               	movwf	tblptrl,c
  7125  010B32                     	if	1	;There is more than 1 active tblptr byte
  7126  010B32  0EFC               	movlw	high _spiMaster
  7127  010B34  6EF7               	movwf	tblptrh,c
  7128  010B36                     	endif
  7129  010B36                     	if	1	;There are 3 active tblptr bytes
  7130  010B36  0E00               	movlw	low (_spiMaster shr (0+16))
  7131  010B38  6EF8               	movwf	tblptru,c
  7132  010B3A                     	endif
  7133  010B3A  D802               	call	u1228
  7134  010B3C  EFAD  F085         	goto	u1229
  7135  010B40                     u1228:
  7136  010B40  0005               	push	
  7137  010B42  6EFA               	movwf	pclath,c
  7138  010B44  0009               	tblrd		*+
  7139  010B46  50F5               	movf	tablat,w,c
  7140  010B48  6EFD               	movwf	tosl,c
  7141  010B4A  0009               	tblrd		*+
  7142  010B4C  50F5               	movf	tablat,w,c
  7143  010B4E  6EFE               	movwf	tosh,c
  7144  010B50  0009               	tblrd		*+
  7145  010B52  50F5               	movf	tablat,w,c
  7146  010B54  6EFF               	movwf	tosu,c
  7147  010B56  50FA               	movf	pclath,w,c
  7148  010B58  0012               	return		;indir
  7149  010B5A                     u1229:
  7150  010B5A                     
  7151                           ;mcc_generated_files/oledC.c: 89:     return ((uint16_t)byte1) << 8 | byte2;
  7152  010B5A  5007               	movf	exchangeTwoBytes@byte1^(0+1280),w,c
  7153  010B5C  6E05               	movwf	??_exchangeTwoBytes^(0+1280),c
  7154  010B5E  5003               	movf	exchangeTwoBytes@byte2^(0+1280),w,c
  7155  010B60  6E03               	movwf	?_exchangeTwoBytes^(0+1280),c
  7156  010B62  C505  F504         	movff	??_exchangeTwoBytes,?_exchangeTwoBytes+1
  7157  010B66                     l614:
  7158  010B66  0012               	return		;funcret
  7159  010B68                     __end_of_exchangeTwoBytes:
  7160                           	callstack 0
  7161                           
  7162 ;; *************** function _oledC_open *****************
  7163 ;; Defined at:
  7164 ;;		line 41 in file "mcc_generated_files/drivers/spi_master.c"
  7165 ;; Parameters:    Size  Location     Type
  7166 ;;		None
  7167 ;; Auto vars:     Size  Location     Type
  7168 ;;		None
  7169 ;; Return value:  Size  Location     Type
  7170 ;;                  1    wreg      _Bool 
  7171 ;; Registers used:
  7172 ;;		wreg, status,2, status,0, tblptrl, tblptrh, tblptru, prodl, prodh, cstack
  7173 ;; Tracked objects:
  7174 ;;		On entry : 0/0
  7175 ;;		On exit  : 0/0
  7176 ;;		Unchanged: 0/0
  7177 ;; Data sizes:     COMRAM   BANK5   BANK6   BANK7   BANK8   BANK9  BANK10  BANK11  BANK12  BANK13  BANK14  BANK15  BANK1
      +6  BANK17  BANK18  BANK19  BANK20  BANK21  BANK22  BANK23  BANK24  BANK25  BANK26  BANK27  BANK28  BANK29  BANK30  BANK3
      +1  BANK32  BANK33  BANK34  BANK35  BANK36  BANK37
  7178 ;;      Params:         0       0       0       0       0       0       0       0       0       0       0       0       
      +0       0       0       0       0       0       0       0       0       0       0       0       0       0       0       
      +0       0       0       0       0       0       0
  7179 ;;      Locals:         0       0       0       0       0       0       0       0       0       0       0       0       
      +0       0       0       0       0       0       0       0       0       0       0       0       0       0       0       
      +0       0       0       0       0       0       0
  7180 ;;      Temps:          0       0       0       0       0       0       0       0       0       0       0       0       
      +0       0       0       0       0       0       0       0       0       0       0       0       0       0       0       
      +0       0       0       0       0       0       0
  7181 ;;      Totals:         0       0       0       0       0       0       0       0       0       0       0       0       
      +0       0       0       0       0       0       0       0       0       0       0       0       0       0       0       
      +0       0       0       0       0       0       0
  7182 ;;Total ram usage:        0 bytes
  7183 ;; Hardware stack levels used: 1
  7184 ;; Hardware stack levels required when called: 1
  7185 ;; This function calls:
  7186 ;;		_SPI1_Open
  7187 ;; This function is called by:
  7188 ;;		_spi_master_open
  7189 ;;		_oledC_sendCommand
  7190 ;;		_exchangeTwoBytes
  7191 ;; This function uses a non-reentrant model
  7192 ;;
  7193                           
  7194                           	psect	text45
  7195  0118FA                     __ptext45:
  7196                           	callstack 0
  7197  0118FA                     _oledC_open:
  7198                           	callstack 122
  7199  0118FA                     
  7200                           ;mcc_generated_files/drivers/spi_master.c: 42:     return SPI1_Open(oledC_CONFIG);
  7201  0118FA  0E00               	movlw	0
  7202  0118FC  ECD3  F084         	call	_SPI1_Open
  7203  011900  0012               	return		;funcret
  7204  011902                     __end_of_oledC_open:
  7205                           	callstack 0
  7206                           
  7207 ;; *************** function _SPI1_Open *****************
  7208 ;; Defined at:
  7209 ;;		line 80 in file "mcc_generated_files/spi1.c"
  7210 ;; Parameters:    Size  Location     Type
  7211 ;;  spi1UniqueCo    1    wreg     enum E355
  7212 ;; Auto vars:     Size  Location     Type
  7213 ;;  spi1UniqueCo    1    1[COMRAM] enum E355
  7214 ;; Return value:  Size  Location     Type
  7215 ;;                  1    wreg      _Bool 
  7216 ;; Registers used:
  7217 ;;		wreg, status,2, status,0, tblptrl, tblptrh, tblptru, prodl, prodh
  7218 ;; Tracked objects:
  7219 ;;		On entry : 0/0
  7220 ;;		On exit  : 0/0
  7221 ;;		Unchanged: 0/0
  7222 ;; Data sizes:     COMRAM   BANK5   BANK6   BANK7   BANK8   BANK9  BANK10  BANK11  BANK12  BANK13  BANK14  BANK15  BANK1
      +6  BANK17  BANK18  BANK19  BANK20  BANK21  BANK22  BANK23  BANK24  BANK25  BANK26  BANK27  BANK28  BANK29  BANK30  BANK3
      +1  BANK32  BANK33  BANK34  BANK35  BANK36  BANK37
  7223 ;;      Params:         0       0       0       0       0       0       0       0       0       0       0       0       
      +0       0       0       0       0       0       0       0       0       0       0       0       0       0       0       
      +0       0       0       0       0       0       0
  7224 ;;      Locals:         1       0       0       0       0       0       0       0       0       0       0       0       
      +0       0       0       0       0       0       0       0       0       0       0       0       0       0       0       
      +0       0       0       0       0       0       0
  7225 ;;      Temps:          1       0       0       0       0       0       0       0       0       0       0       0       
      +0       0       0       0       0       0       0       0       0       0       0       0       0       0       0       
      +0       0       0       0       0       0       0
  7226 ;;      Totals:         2       0       0       0       0       0       0       0       0       0       0       0       
      +0       0       0       0       0       0       0       0       0       0       0       0       0       0       0       
      +0       0       0       0       0       0       0
  7227 ;;Total ram usage:        2 bytes
  7228 ;; Hardware stack levels used: 1
  7229 ;; This function calls:
  7230 ;;		Nothing
  7231 ;; This function is called by:
  7232 ;;		_oledC_open
  7233 ;; This function uses a non-reentrant model
  7234 ;;
  7235                           
  7236                           	psect	text46
  7237  0109A6                     __ptext46:
  7238                           	callstack 0
  7239  0109A6                     _SPI1_Open:
  7240                           	callstack 122
  7241                           
  7242                           ;incstack = 0
  7243                           ;SPI1_Open@spi1UniqueConfiguration stored from wreg
  7244  0109A6  6E02               	movwf	SPI1_Open@spi1UniqueConfiguration^(0+1280),c
  7245  0109A8                     
  7246                           ;mcc_generated_files/spi1.c: 80: _Bool SPI1_Open(spi1_modes_t spi1UniqueConfiguration);m
      +                          cc_generated_files/spi1.c: 81: {;mcc_generated_files/spi1.c: 82:     if(!SPI1CON0bits.EN
      +                          )
  7247  0109A8  0100               	movlb	0	; () banked
  7248  0109AA  BF84               	btfsc	132,7,b	;volatile
  7249  0109AC  EFDA  F084         	goto	u1061
  7250  0109B0  EFDC  F084         	goto	u1060
  7251  0109B4                     u1061:
  7252  0109B4  EF42  F085         	goto	l2569
  7253  0109B8                     u1060:
  7254  0109B8                     
  7255                           ; BSR set to: 0
  7256                           ;mcc_generated_files/spi1.c: 83:     {;mcc_generated_files/spi1.c: 84:         SPI1CON0 
      +                          = spi1_configuration[spi1UniqueConfiguration].con0;
  7257  0109B8  5002               	movf	SPI1_Open@spi1UniqueConfiguration^(0+1280),w,c
  7258  0109BA  0D05               	mullw	5
  7259  0109BC  0E93               	movlw	low _spi1_configuration
  7260  0109BE  24F3               	addwf	243,w,c
  7261  0109C0  6EF6               	movwf	tblptrl,c
  7262  0109C2  0EFC               	movlw	high _spi1_configuration
  7263  0109C4  20F4               	addwfc	244,w,c
  7264  0109C6  6EF7               	movwf	tblptrh,c
  7265  0109C8                     	if	1	;There are 3 active tblptr bytes
  7266  0109C8  6AF8               	clrf	tblptru,c
  7267  0109CA  0E00               	movlw	low (__mediumconst shr (0+16))
  7268  0109CC  22F8               	addwfc	tblptru,f,c
  7269  0109CE                     	endif
  7270  0109CE  0008               	tblrd		*
  7271  0109D0  C4F5 F084          	movff	tablat,132	;volatile
  7272                           
  7273                           ;mcc_generated_files/spi1.c: 85:         SPI1CON1 = spi1_configuration[spi1UniqueConfigu
      +                          ration].con1;
  7274  0109D4  5002               	movf	SPI1_Open@spi1UniqueConfiguration^(0+1280),w,c
  7275  0109D6  0D05               	mullw	5
  7276  0109D8  0E01               	movlw	1
  7277  0109DA  26F3               	addwf	243,f,c
  7278  0109DC  0E00               	movlw	0
  7279  0109DE  22F4               	addwfc	244,f,c
  7280  0109E0  0E93               	movlw	low _spi1_configuration
  7281  0109E2  24F3               	addwf	243,w,c
  7282  0109E4  6EF6               	movwf	tblptrl,c
  7283  0109E6  0EFC               	movlw	high _spi1_configuration
  7284  0109E8  20F4               	addwfc	244,w,c
  7285  0109EA  6EF7               	movwf	tblptrh,c
  7286  0109EC                     	if	1	;There are 3 active tblptr bytes
  7287  0109EC  6AF8               	clrf	tblptru,c
  7288  0109EE  0E00               	movlw	low (__mediumconst shr (0+16))
  7289  0109F0  22F8               	addwfc	tblptru,f,c
  7290  0109F2                     	endif
  7291  0109F2  0008               	tblrd		*
  7292  0109F4  C4F5 F085          	movff	tablat,133	;volatile
  7293                           
  7294                           ;mcc_generated_files/spi1.c: 86:         SPI1CON2 = spi1_configuration[spi1UniqueConfigu
      +                          ration].con2 | (0x1 | 0x2);
  7295  0109F8  5002               	movf	SPI1_Open@spi1UniqueConfiguration^(0+1280),w,c
  7296  0109FA  0D05               	mullw	5
  7297  0109FC  0E02               	movlw	2
  7298  0109FE  26F3               	addwf	243,f,c
  7299  010A00  0E00               	movlw	0
  7300  010A02  22F4               	addwfc	244,f,c
  7301  010A04  0E93               	movlw	low _spi1_configuration
  7302  010A06  24F3               	addwf	243,w,c
  7303  010A08  6EF6               	movwf	tblptrl,c
  7304  010A0A  0EFC               	movlw	high _spi1_configuration
  7305  010A0C  20F4               	addwfc	244,w,c
  7306  010A0E  6EF7               	movwf	tblptrh,c
  7307  010A10                     	if	1	;There are 3 active tblptr bytes
  7308  010A10  6AF8               	clrf	tblptru,c
  7309  010A12  0E00               	movlw	low (__mediumconst shr (0+16))
  7310  010A14  22F8               	addwfc	tblptru,f,c
  7311  010A16                     	endif
  7312  010A16  0008               	tblrd		*
  7313  010A18  50F5               	movf	tablat,w,c
  7314  010A1A  0903               	iorlw	3
  7315  010A1C  6F86               	movwf	134,b	;volatile
  7316  010A1E                     
  7317                           ; BSR set to: 0
  7318                           ;mcc_generated_files/spi1.c: 87:         SPI1CLK = 0x00;
  7319  010A1E  0E00               	movlw	0
  7320  010A20  6F8C               	movwf	140,b	;volatile
  7321  010A22                     
  7322                           ; BSR set to: 0
  7323                           ;mcc_generated_files/spi1.c: 88:         SPI1BAUD = spi1_configuration[spi1UniqueConfigu
      +                          ration].baud;
  7324  010A22  5002               	movf	SPI1_Open@spi1UniqueConfiguration^(0+1280),w,c
  7325  010A24  0D05               	mullw	5
  7326  010A26  0E03               	movlw	3
  7327  010A28  26F3               	addwf	243,f,c
  7328  010A2A  0E00               	movlw	0
  7329  010A2C  22F4               	addwfc	244,f,c
  7330  010A2E  0E93               	movlw	low _spi1_configuration
  7331  010A30  24F3               	addwf	243,w,c
  7332  010A32  6EF6               	movwf	tblptrl,c
  7333  010A34  0EFC               	movlw	high _spi1_configuration
  7334  010A36  20F4               	addwfc	244,w,c
  7335  010A38  6EF7               	movwf	tblptrh,c
  7336  010A3A                     	if	1	;There are 3 active tblptr bytes
  7337  010A3A  6AF8               	clrf	tblptru,c
  7338  010A3C  0E00               	movlw	low (__mediumconst shr (0+16))
  7339  010A3E  22F8               	addwfc	tblptru,f,c
  7340  010A40                     	endif
  7341  010A40  0008               	tblrd		*
  7342  010A42  C4F5 F089          	movff	tablat,137	;volatile
  7343  010A46                     
  7344                           ; BSR set to: 0
  7345                           ;mcc_generated_files/spi1.c: 89:         TRISCbits.TRISC6 = spi1_configuration[spi1Uniqu
      +                          eConfiguration].operation;
  7346  010A46  5002               	movf	SPI1_Open@spi1UniqueConfiguration^(0+1280),w,c
  7347  010A48  0D05               	mullw	5
  7348  010A4A  0E04               	movlw	4
  7349  010A4C  26F3               	addwf	243,f,c
  7350  010A4E  0E00               	movlw	0
  7351  010A50  22F4               	addwfc	244,f,c
  7352  010A52  0E93               	movlw	low _spi1_configuration
  7353  010A54  24F3               	addwf	243,w,c
  7354  010A56  6EF6               	movwf	tblptrl,c
  7355  010A58  0EFC               	movlw	high _spi1_configuration
  7356  010A5A  20F4               	addwfc	244,w,c
  7357  010A5C  6EF7               	movwf	tblptrh,c
  7358  010A5E                     	if	1	;There are 3 active tblptr bytes
  7359  010A5E  6AF8               	clrf	tblptru,c
  7360  010A60  0E00               	movlw	low (__mediumconst shr (0+16))
  7361  010A62  22F8               	addwfc	tblptru,f,c
  7362  010A64                     	endif
  7363  010A64  0008               	tblrd		*
  7364  010A66  0061 F3D4  F501    	movff	tablat,??_SPI1_Open
  7365  010A6C  3A01               	swapf	??_SPI1_Open^(0+1280),f,c
  7366  010A6E  4601               	rlncf	??_SPI1_Open^(0+1280),f,c
  7367  010A70  4601               	rlncf	??_SPI1_Open^(0+1280),f,c
  7368  010A72  50C8               	movf	200,w,c	;volatile
  7369  010A74  1801               	xorwf	??_SPI1_Open^(0+1280),w,c
  7370  010A76  0BBF               	andlw	-65
  7371  010A78  1801               	xorwf	??_SPI1_Open^(0+1280),w,c
  7372  010A7A  6EC8               	movwf	200,c	;volatile
  7373  010A7C                     
  7374                           ; BSR set to: 0
  7375                           ;mcc_generated_files/spi1.c: 90:         SPI1CON0bits.EN = 1;
  7376  010A7C  8F84               	bsf	132,7,b	;volatile
  7377  010A7E                     
  7378                           ; BSR set to: 0
  7379                           ;mcc_generated_files/spi1.c: 91:         return 1;
  7380  010A7E  0E01               	movlw	1
  7381  010A80  EF43  F085         	goto	l945
  7382  010A84                     l2569:
  7383                           
  7384                           ; BSR set to: 0
  7385                           ;mcc_generated_files/spi1.c: 93:     return 0;
  7386  010A84  0E00               	movlw	0
  7387  010A86                     l945:
  7388                           
  7389                           ; BSR set to: 0
  7390  010A86  0012               	return		;funcret
  7391  010A88                     __end_of_SPI1_Open:
  7392                           	callstack 0
  7393                           
  7394 ;; *************** function _SPI1_ExchangeByte *****************
  7395 ;; Defined at:
  7396 ;;		line 101 in file "mcc_generated_files/spi1.c"
  7397 ;; Parameters:    Size  Location     Type
  7398 ;;  data            1    wreg     unsigned char 
  7399 ;; Auto vars:     Size  Location     Type
  7400 ;;  data            1    0[COMRAM] unsigned char 
  7401 ;; Return value:  Size  Location     Type
  7402 ;;                  1    wreg      unsigned char 
  7403 ;; Registers used:
  7404 ;;		wreg, status,2
  7405 ;; Tracked objects:
  7406 ;;		On entry : 0/0
  7407 ;;		On exit  : 0/0
  7408 ;;		Unchanged: 0/0
  7409 ;; Data sizes:     COMRAM   BANK5   BANK6   BANK7   BANK8   BANK9  BANK10  BANK11  BANK12  BANK13  BANK14  BANK15  BANK1
      +6  BANK17  BANK18  BANK19  BANK20  BANK21  BANK22  BANK23  BANK24  BANK25  BANK26  BANK27  BANK28  BANK29  BANK30  BANK3
      +1  BANK32  BANK33  BANK34  BANK35  BANK36  BANK37
  7410 ;;      Params:         0       0       0       0       0       0       0       0       0       0       0       0       
      +0       0       0       0       0       0       0       0       0       0       0       0       0       0       0       
      +0       0       0       0       0       0       0
  7411 ;;      Locals:         1       0       0       0       0       0       0       0       0       0       0       0       
      +0       0       0       0       0       0       0       0       0       0       0       0       0       0       0       
      +0       0       0       0       0       0       0
  7412 ;;      Temps:          0       0       0       0       0       0       0       0       0       0       0       0       
      +0       0       0       0       0       0       0       0       0       0       0       0       0       0       0       
      +0       0       0       0       0       0       0
  7413 ;;      Totals:         1       0       0       0       0       0       0       0       0       0       0       0       
      +0       0       0       0       0       0       0       0       0       0       0       0       0       0       0       
      +0       0       0       0       0       0       0
  7414 ;;Total ram usage:        1 bytes
  7415 ;; Hardware stack levels used: 1
  7416 ;; This function calls:
  7417 ;;		Nothing
  7418 ;; This function is called by:
  7419 ;;		_SPI1_WriteBlock
  7420 ;;		_SPI1_ReadBlock
  7421 ;;		_oledC_sendCommand
  7422 ;;		_exchangeTwoBytes
  7423 ;; This function uses a non-reentrant model
  7424 ;;
  7425                           
  7426                           	psect	text47
  7427  01184A                     __ptext47:
  7428                           	callstack 0
  7429  01184A                     _SPI1_ExchangeByte:
  7430                           	callstack 122
  7431                           
  7432                           ; BSR set to: 0
  7433                           ;incstack = 0
  7434                           ;SPI1_ExchangeByte@data stored from wreg
  7435  01184A  6E01               	movwf	SPI1_ExchangeByte@data^(0+1280),c
  7436  01184C                     
  7437                           ;mcc_generated_files/spi1.c: 101: uint8_t SPI1_ExchangeByte(uint8_t data);mcc_generated_
      +                          files/spi1.c: 102: {;mcc_generated_files/spi1.c: 103:     SPI1TCNTL = 1;
  7438  01184C  0E01               	movlw	1
  7439  01184E  0100               	movlb	0	; () banked
  7440  011850  6F82               	movwf	130,b	;volatile
  7441  011852                     
  7442                           ; BSR set to: 0
  7443                           ;mcc_generated_files/spi1.c: 104:     SPI1TXB = data;
  7444  011852  0061  F404  F081   	movff	SPI1_ExchangeByte@data,129	;volatile
  7445  011858                     l951:
  7446  011858  A0B1               	btfss	177,0,c	;volatile
  7447  01185A  EF31  F08C         	goto	u1071
  7448  01185E  EF33  F08C         	goto	u1070
  7449  011862                     u1071:
  7450  011862  EF2C  F08C         	goto	l951
  7451  011866                     u1070:
  7452  011866                     
  7453                           ;mcc_generated_files/spi1.c: 106:     return SPI1RXB;
  7454  011866  0100               	movlb	0	; () banked
  7455  011868  5180               	movf	128,w,b	;volatile
  7456  01186A                     
  7457                           ; BSR set to: 0
  7458  01186A  0012               	return		;funcret
  7459  01186C                     __end_of_SPI1_ExchangeByte:
  7460                           	callstack 0
  7461                           
  7462 ;; *************** function _SPI1_Close *****************
  7463 ;; Defined at:
  7464 ;;		line 96 in file "mcc_generated_files/spi1.c"
  7465 ;; Parameters:    Size  Location     Type
  7466 ;;		None
  7467 ;; Auto vars:     Size  Location     Type
  7468 ;;		None
  7469 ;; Return value:  Size  Location     Type
  7470 ;;                  1    wreg      void 
  7471 ;; Registers used:
  7472 ;;		None
  7473 ;; Tracked objects:
  7474 ;;		On entry : 0/0
  7475 ;;		On exit  : 0/0
  7476 ;;		Unchanged: 0/0
  7477 ;; Data sizes:     COMRAM   BANK5   BANK6   BANK7   BANK8   BANK9  BANK10  BANK11  BANK12  BANK13  BANK14  BANK15  BANK1
      +6  BANK17  BANK18  BANK19  BANK20  BANK21  BANK22  BANK23  BANK24  BANK25  BANK26  BANK27  BANK28  BANK29  BANK30  BANK3
      +1  BANK32  BANK33  BANK34  BANK35  BANK36  BANK37
  7478 ;;      Params:         0       0       0       0       0       0       0       0       0       0       0       0       
      +0       0       0       0       0       0       0       0       0       0       0       0       0       0       0       
      +0       0       0       0       0       0       0
  7479 ;;      Locals:         0       0       0       0       0       0       0       0       0       0       0       0       
      +0       0       0       0       0       0       0       0       0       0       0       0       0       0       0       
      +0       0       0       0       0       0       0
  7480 ;;      Temps:          0       0       0       0       0       0       0       0       0       0       0       0       
      +0       0       0       0       0       0       0       0       0       0       0       0       0       0       0       
      +0       0       0       0       0       0       0
  7481 ;;      Totals:         0       0       0       0       0       0       0       0       0       0       0       0       
      +0       0       0       0       0       0       0       0       0       0       0       0       0       0       0       
      +0       0       0       0       0       0       0
  7482 ;;Total ram usage:        0 bytes
  7483 ;; Hardware stack levels used: 1
  7484 ;; This function calls:
  7485 ;;		Nothing
  7486 ;; This function is called by:
  7487 ;;		_oledC_sendCommand
  7488 ;;		_exchangeTwoBytes
  7489 ;; This function uses a non-reentrant model
  7490 ;;
  7491                           
  7492                           	psect	text48
  7493  011902                     __ptext48:
  7494                           	callstack 0
  7495  011902                     _SPI1_Close:
  7496                           	callstack 123
  7497  011902                     
  7498                           ;mcc_generated_files/spi1.c: 98:     SPI1CON0bits.EN = 0;
  7499  011902  0100               	movlb	0	; () banked
  7500  011904  9F84               	bcf	132,7,b	;volatile
  7501  011906                     
  7502                           ; BSR set to: 0
  7503  011906  0012               	return		;funcret
  7504  011908                     __end_of_SPI1_Close:
  7505                           	callstack 0
  7506                           
  7507 ;; *************** function _SPI1_Initialize *****************
  7508 ;; Defined at:
  7509 ;;		line 65 in file "mcc_generated_files/spi1.c"
  7510 ;; Parameters:    Size  Location     Type
  7511 ;;		None
  7512 ;; Auto vars:     Size  Location     Type
  7513 ;;		None
  7514 ;; Return value:  Size  Location     Type
  7515 ;;                  1    wreg      void 
  7516 ;; Registers used:
  7517 ;;		wreg, status,2
  7518 ;; Tracked objects:
  7519 ;;		On entry : 0/0
  7520 ;;		On exit  : 0/0
  7521 ;;		Unchanged: 0/0
  7522 ;; Data sizes:     COMRAM   BANK5   BANK6   BANK7   BANK8   BANK9  BANK10  BANK11  BANK12  BANK13  BANK14  BANK15  BANK1
      +6  BANK17  BANK18  BANK19  BANK20  BANK21  BANK22  BANK23  BANK24  BANK25  BANK26  BANK27  BANK28  BANK29  BANK30  BANK3
      +1  BANK32  BANK33  BANK34  BANK35  BANK36  BANK37
  7523 ;;      Params:         0       0       0       0       0       0       0       0       0       0       0       0       
      +0       0       0       0       0       0       0       0       0       0       0       0       0       0       0       
      +0       0       0       0       0       0       0
  7524 ;;      Locals:         0       0       0       0       0       0       0       0       0       0       0       0       
      +0       0       0       0       0       0       0       0       0       0       0       0       0       0       0       
      +0       0       0       0       0       0       0
  7525 ;;      Temps:          0       0       0       0       0       0       0       0       0       0       0       0       
      +0       0       0       0       0       0       0       0       0       0       0       0       0       0       0       
      +0       0       0       0       0       0       0
  7526 ;;      Totals:         0       0       0       0       0       0       0       0       0       0       0       0       
      +0       0       0       0       0       0       0       0       0       0       0       0       0       0       0       
      +0       0       0       0       0       0       0
  7527 ;;Total ram usage:        0 bytes
  7528 ;; Hardware stack levels used: 1
  7529 ;; This function calls:
  7530 ;;		Nothing
  7531 ;; This function is called by:
  7532 ;;		_SYSTEM_Initialize
  7533 ;; This function uses a non-reentrant model
  7534 ;;
  7535                           
  7536                           	psect	text49
  7537  0118A2                     __ptext49:
  7538                           	callstack 0
  7539  0118A2                     _SPI1_Initialize:
  7540                           	callstack 126
  7541  0118A2                     
  7542                           ;mcc_generated_files/spi1.c: 68:     SPI1CON0 = 0x00;
  7543  0118A2  0E00               	movlw	0
  7544  0118A4  0100               	movlb	0	; () banked
  7545  0118A6  6F84               	movwf	132,b	;volatile
  7546                           
  7547                           ;mcc_generated_files/spi1.c: 70:     SPI1CON1 = 0x40;
  7548  0118A8  0E40               	movlw	64
  7549  0118AA  6F85               	movwf	133,b	;volatile
  7550                           
  7551                           ;mcc_generated_files/spi1.c: 72:     SPI1CON2 = 0x00;
  7552  0118AC  0E00               	movlw	0
  7553  0118AE  6F86               	movwf	134,b	;volatile
  7554                           
  7555                           ;mcc_generated_files/spi1.c: 74:     SPI1CLK = 0x00;
  7556  0118B0  0E00               	movlw	0
  7557  0118B2  6F8C               	movwf	140,b	;volatile
  7558                           
  7559                           ;mcc_generated_files/spi1.c: 76:     SPI1BAUD = 0x00;
  7560  0118B4  0E00               	movlw	0
  7561  0118B6  6F89               	movwf	137,b	;volatile
  7562  0118B8                     
  7563                           ; BSR set to: 0
  7564                           ;mcc_generated_files/spi1.c: 77:     TRISCbits.TRISC6 = 0;
  7565  0118B8  9CC8               	bcf	200,6,c	;volatile
  7566  0118BA                     
  7567                           ; BSR set to: 0
  7568  0118BA  0012               	return		;funcret
  7569  0118BC                     __end_of_SPI1_Initialize:
  7570                           	callstack 0
  7571                           
  7572 ;; *************** function _PMD_Initialize *****************
  7573 ;; Defined at:
  7574 ;;		line 76 in file "mcc_generated_files/mcc.c"
  7575 ;; Parameters:    Size  Location     Type
  7576 ;;		None
  7577 ;; Auto vars:     Size  Location     Type
  7578 ;;		None
  7579 ;; Return value:  Size  Location     Type
  7580 ;;                  1    wreg      void 
  7581 ;; Registers used:
  7582 ;;		wreg, status,2
  7583 ;; Tracked objects:
  7584 ;;		On entry : 0/0
  7585 ;;		On exit  : 0/0
  7586 ;;		Unchanged: 0/0
  7587 ;; Data sizes:     COMRAM   BANK5   BANK6   BANK7   BANK8   BANK9  BANK10  BANK11  BANK12  BANK13  BANK14  BANK15  BANK1
      +6  BANK17  BANK18  BANK19  BANK20  BANK21  BANK22  BANK23  BANK24  BANK25  BANK26  BANK27  BANK28  BANK29  BANK30  BANK3
      +1  BANK32  BANK33  BANK34  BANK35  BANK36  BANK37
  7588 ;;      Params:         0       0       0       0       0       0       0       0       0       0       0       0       
      +0       0       0       0       0       0       0       0       0       0       0       0       0       0       0       
      +0       0       0       0       0       0       0
  7589 ;;      Locals:         0       0       0       0       0       0       0       0       0       0       0       0       
      +0       0       0       0       0       0       0       0       0       0       0       0       0       0       0       
      +0       0       0       0       0       0       0
  7590 ;;      Temps:          0       0       0       0       0       0       0       0       0       0       0       0       
      +0       0       0       0       0       0       0       0       0       0       0       0       0       0       0       
      +0       0       0       0       0       0       0
  7591 ;;      Totals:         0       0       0       0       0       0       0       0       0       0       0       0       
      +0       0       0       0       0       0       0       0       0       0       0       0       0       0       0       
      +0       0       0       0       0       0       0
  7592 ;;Total ram usage:        0 bytes
  7593 ;; Hardware stack levels used: 1
  7594 ;; This function calls:
  7595 ;;		Nothing
  7596 ;; This function is called by:
  7597 ;;		_SYSTEM_Initialize
  7598 ;; This function uses a non-reentrant model
  7599 ;;
  7600                           
  7601                           	psect	text50
  7602  011826                     __ptext50:
  7603                           	callstack 0
  7604  011826                     _PMD_Initialize:
  7605                           	callstack 126
  7606  011826                     
  7607                           ;mcc_generated_files/mcc.c: 79:     PMD0 = 0x00;
  7608  011826  0E00               	movlw	0
  7609  011828  0100               	movlb	0	; () banked
  7610  01182A  6F60               	movwf	96,b	;volatile
  7611                           
  7612                           ;mcc_generated_files/mcc.c: 81:     PMD1 = 0x00;
  7613  01182C  0E00               	movlw	0
  7614  01182E  6F61               	movwf	97,b	;volatile
  7615                           
  7616                           ;mcc_generated_files/mcc.c: 83:     PMD3 = 0x00;
  7617  011830  0E00               	movlw	0
  7618  011832  6F63               	movwf	99,b	;volatile
  7619                           
  7620                           ;mcc_generated_files/mcc.c: 85:     PMD4 = 0x00;
  7621  011834  0E00               	movlw	0
  7622  011836  6F64               	movwf	100,b	;volatile
  7623                           
  7624                           ;mcc_generated_files/mcc.c: 87:     PMD5 = 0x00;
  7625  011838  0E00               	movlw	0
  7626  01183A  6F65               	movwf	101,b	;volatile
  7627                           
  7628                           ;mcc_generated_files/mcc.c: 89:     PMD6 = 0x00;
  7629  01183C  0E00               	movlw	0
  7630  01183E  6F66               	movwf	102,b	;volatile
  7631                           
  7632                           ;mcc_generated_files/mcc.c: 91:     PMD7 = 0x00;
  7633  011840  0E00               	movlw	0
  7634  011842  6F67               	movwf	103,b	;volatile
  7635                           
  7636                           ;mcc_generated_files/mcc.c: 93:     PMD8 = 0x00;
  7637  011844  0E00               	movlw	0
  7638  011846  6F68               	movwf	104,b	;volatile
  7639  011848                     
  7640                           ; BSR set to: 0
  7641  011848  0012               	return		;funcret
  7642  01184A                     __end_of_PMD_Initialize:
  7643                           	callstack 0
  7644                           
  7645 ;; *************** function _PIN_MANAGER_Initialize *****************
  7646 ;; Defined at:
  7647 ;;		line 55 in file "mcc_generated_files/pin_manager.c"
  7648 ;; Parameters:    Size  Location     Type
  7649 ;;		None
  7650 ;; Auto vars:     Size  Location     Type
  7651 ;;		None
  7652 ;; Return value:  Size  Location     Type
  7653 ;;                  1    wreg      void 
  7654 ;; Registers used:
  7655 ;;		wreg, status,2
  7656 ;; Tracked objects:
  7657 ;;		On entry : 0/0
  7658 ;;		On exit  : 0/0
  7659 ;;		Unchanged: 0/0
  7660 ;; Data sizes:     COMRAM   BANK5   BANK6   BANK7   BANK8   BANK9  BANK10  BANK11  BANK12  BANK13  BANK14  BANK15  BANK1
      +6  BANK17  BANK18  BANK19  BANK20  BANK21  BANK22  BANK23  BANK24  BANK25  BANK26  BANK27  BANK28  BANK29  BANK30  BANK3
      +1  BANK32  BANK33  BANK34  BANK35  BANK36  BANK37
  7661 ;;      Params:         0       0       0       0       0       0       0       0       0       0       0       0       
      +0       0       0       0       0       0       0       0       0       0       0       0       0       0       0       
      +0       0       0       0       0       0       0
  7662 ;;      Locals:         0       0       0       0       0       0       0       0       0       0       0       0       
      +0       0       0       0       0       0       0       0       0       0       0       0       0       0       0       
      +0       0       0       0       0       0       0
  7663 ;;      Temps:          0       0       0       0       0       0       0       0       0       0       0       0       
      +0       0       0       0       0       0       0       0       0       0       0       0       0       0       0       
      +0       0       0       0       0       0       0
  7664 ;;      Totals:         0       0       0       0       0       0       0       0       0       0       0       0       
      +0       0       0       0       0       0       0       0       0       0       0       0       0       0       0       
      +0       0       0       0       0       0       0
  7665 ;;Total ram usage:        0 bytes
  7666 ;; Hardware stack levels used: 1
  7667 ;; This function calls:
  7668 ;;		Nothing
  7669 ;; This function is called by:
  7670 ;;		_SYSTEM_Initialize
  7671 ;; This function uses a non-reentrant model
  7672 ;;
  7673                           
  7674                           	psect	text51
  7675  010CEE                     __ptext51:
  7676                           	callstack 0
  7677  010CEE                     _PIN_MANAGER_Initialize:
  7678                           	callstack 126
  7679  010CEE                     
  7680                           ;mcc_generated_files/pin_manager.c: 60:     LATE = 0x00;
  7681  010CEE  0E00               	movlw	0
  7682  010CF0  6EC2               	movwf	194,c	;volatile
  7683                           
  7684                           ;mcc_generated_files/pin_manager.c: 61:     LATD = 0x00;
  7685  010CF2  0E00               	movlw	0
  7686  010CF4  6EC1               	movwf	193,c	;volatile
  7687                           
  7688                           ;mcc_generated_files/pin_manager.c: 62:     LATA = 0x00;
  7689  010CF6  0E00               	movlw	0
  7690  010CF8  6EBE               	movwf	190,c	;volatile
  7691                           
  7692                           ;mcc_generated_files/pin_manager.c: 63:     LATF = 0x00;
  7693  010CFA  0E00               	movlw	0
  7694  010CFC  6EC3               	movwf	195,c	;volatile
  7695                           
  7696                           ;mcc_generated_files/pin_manager.c: 64:     LATB = 0x00;
  7697  010CFE  0E00               	movlw	0
  7698  010D00  6EBF               	movwf	191,c	;volatile
  7699                           
  7700                           ;mcc_generated_files/pin_manager.c: 65:     LATC = 0x00;
  7701  010D02  0E00               	movlw	0
  7702  010D04  6EC0               	movwf	192,c	;volatile
  7703                           
  7704                           ;mcc_generated_files/pin_manager.c: 70:     TRISE = 0x07;
  7705  010D06  0E07               	movlw	7
  7706  010D08  6ECA               	movwf	202,c	;volatile
  7707  010D0A                     
  7708                           ;mcc_generated_files/pin_manager.c: 71:     TRISF = 0xFF;
  7709  010D0A  68CB               	setf	203,c	;volatile
  7710                           
  7711                           ;mcc_generated_files/pin_manager.c: 72:     TRISA = 0x3E;
  7712  010D0C  0E3E               	movlw	62
  7713  010D0E  6EC6               	movwf	198,c	;volatile
  7714                           
  7715                           ;mcc_generated_files/pin_manager.c: 73:     TRISB = 0xFE;
  7716  010D10  0EFE               	movlw	254
  7717  010D12  6EC7               	movwf	199,c	;volatile
  7718                           
  7719                           ;mcc_generated_files/pin_manager.c: 74:     TRISC = 0xAF;
  7720  010D14  0EAF               	movlw	175
  7721  010D16  6EC8               	movwf	200,c	;volatile
  7722                           
  7723                           ;mcc_generated_files/pin_manager.c: 75:     TRISD = 0xEF;
  7724  010D18  0EEF               	movlw	239
  7725  010D1A  6EC9               	movwf	201,c	;volatile
  7726                           
  7727                           ;mcc_generated_files/pin_manager.c: 80:     ANSELD = 0xEF;
  7728  010D1C  0EEF               	movlw	239
  7729  010D1E  0104               	movlb	4	; () banked
  7730  010D20  6F18               	movwf	24,b	;volatile
  7731                           
  7732                           ;mcc_generated_files/pin_manager.c: 81:     ANSELC = 0x9F;
  7733  010D22  0E9F               	movlw	159
  7734  010D24  6F10               	movwf	16,b	;volatile
  7735                           
  7736                           ;mcc_generated_files/pin_manager.c: 82:     ANSELB = 0xFE;
  7737  010D26  0EFE               	movlw	254
  7738  010D28  6F08               	movwf	8,b	;volatile
  7739                           
  7740                           ;mcc_generated_files/pin_manager.c: 83:     ANSELE = 0x07;
  7741  010D2A  0E07               	movlw	7
  7742  010D2C  6F20               	movwf	32,b	;volatile
  7743  010D2E                     
  7744                           ; BSR set to: 4
  7745                           ;mcc_generated_files/pin_manager.c: 84:     ANSELF = 0xFF;
  7746  010D2E  6928               	setf	40,b	;volatile
  7747                           
  7748                           ;mcc_generated_files/pin_manager.c: 85:     ANSELA = 0x3E;
  7749  010D30  0E3E               	movlw	62
  7750  010D32  6F00               	movwf	0,b	;volatile
  7751                           
  7752                           ;mcc_generated_files/pin_manager.c: 90:     WPUD = 0x00;
  7753  010D34  0E00               	movlw	0
  7754  010D36  6F19               	movwf	25,b	;volatile
  7755                           
  7756                           ;mcc_generated_files/pin_manager.c: 91:     WPUF = 0x00;
  7757  010D38  0E00               	movlw	0
  7758  010D3A  6F29               	movwf	41,b	;volatile
  7759                           
  7760                           ;mcc_generated_files/pin_manager.c: 92:     WPUE = 0x00;
  7761  010D3C  0E00               	movlw	0
  7762  010D3E  6F21               	movwf	33,b	;volatile
  7763                           
  7764                           ;mcc_generated_files/pin_manager.c: 93:     WPUB = 0x00;
  7765  010D40  0E00               	movlw	0
  7766  010D42  6F09               	movwf	9,b	;volatile
  7767                           
  7768                           ;mcc_generated_files/pin_manager.c: 94:     WPUA = 0x00;
  7769  010D44  0E00               	movlw	0
  7770  010D46  6F01               	movwf	1,b	;volatile
  7771                           
  7772                           ;mcc_generated_files/pin_manager.c: 95:     WPUC = 0x00;
  7773  010D48  0E00               	movlw	0
  7774  010D4A  6F11               	movwf	17,b	;volatile
  7775                           
  7776                           ;mcc_generated_files/pin_manager.c: 100:     RB1I2C = 0x00;
  7777  010D4C  0E00               	movlw	0
  7778  010D4E  0102               	movlb	2	; () banked
  7779  010D50  6F89               	movwf	137,b	;volatile
  7780                           
  7781                           ;mcc_generated_files/pin_manager.c: 101:     RB2I2C = 0x00;
  7782  010D52  0E00               	movlw	0
  7783  010D54  6F88               	movwf	136,b	;volatile
  7784                           
  7785                           ;mcc_generated_files/pin_manager.c: 102:     RC3I2C = 0x00;
  7786  010D56  0E00               	movlw	0
  7787  010D58  6F87               	movwf	135,b	;volatile
  7788                           
  7789                           ;mcc_generated_files/pin_manager.c: 103:     RC4I2C = 0x00;
  7790  010D5A  0E00               	movlw	0
  7791  010D5C  6F86               	movwf	134,b	;volatile
  7792                           
  7793                           ;mcc_generated_files/pin_manager.c: 108:     ODCONE = 0x00;
  7794  010D5E  0E00               	movlw	0
  7795  010D60  0104               	movlb	4	; () banked
  7796  010D62  6F22               	movwf	34,b	;volatile
  7797                           
  7798                           ;mcc_generated_files/pin_manager.c: 109:     ODCONF = 0x00;
  7799  010D64  0E00               	movlw	0
  7800  010D66  6F2A               	movwf	42,b	;volatile
  7801                           
  7802                           ;mcc_generated_files/pin_manager.c: 110:     ODCONA = 0x00;
  7803  010D68  0E00               	movlw	0
  7804  010D6A  6F02               	movwf	2,b	;volatile
  7805                           
  7806                           ;mcc_generated_files/pin_manager.c: 111:     ODCONB = 0x00;
  7807  010D6C  0E00               	movlw	0
  7808  010D6E  6F0A               	movwf	10,b	;volatile
  7809                           
  7810                           ;mcc_generated_files/pin_manager.c: 112:     ODCONC = 0x00;
  7811  010D70  0E00               	movlw	0
  7812  010D72  6F12               	movwf	18,b	;volatile
  7813                           
  7814                           ;mcc_generated_files/pin_manager.c: 113:     ODCOND = 0x00;
  7815  010D74  0E00               	movlw	0
  7816  010D76  6F1A               	movwf	26,b	;volatile
  7817  010D78                     
  7818                           ; BSR set to: 4
  7819                           ;mcc_generated_files/pin_manager.c: 118:     SLRCONA = 0xFF;
  7820  010D78  6903               	setf	3,b	;volatile
  7821  010D7A                     
  7822                           ; BSR set to: 4
  7823                           ;mcc_generated_files/pin_manager.c: 119:     SLRCONB = 0xFF;
  7824  010D7A  690B               	setf	11,b	;volatile
  7825  010D7C                     
  7826                           ; BSR set to: 4
  7827                           ;mcc_generated_files/pin_manager.c: 120:     SLRCONC = 0xFF;
  7828  010D7C  6913               	setf	19,b	;volatile
  7829  010D7E                     
  7830                           ; BSR set to: 4
  7831                           ;mcc_generated_files/pin_manager.c: 121:     SLRCOND = 0xFF;
  7832  010D7E  691B               	setf	27,b	;volatile
  7833                           
  7834                           ;mcc_generated_files/pin_manager.c: 122:     SLRCONE = 0x07;
  7835  010D80  0E07               	movlw	7
  7836  010D82  6F23               	movwf	35,b	;volatile
  7837  010D84                     
  7838                           ; BSR set to: 4
  7839                           ;mcc_generated_files/pin_manager.c: 123:     SLRCONF = 0xFF;
  7840  010D84  692B               	setf	43,b	;volatile
  7841  010D86                     
  7842                           ; BSR set to: 4
  7843                           ;mcc_generated_files/pin_manager.c: 128:     INLVLA = 0xFF;
  7844  010D86  6904               	setf	4,b	;volatile
  7845  010D88                     
  7846                           ; BSR set to: 4
  7847                           ;mcc_generated_files/pin_manager.c: 129:     INLVLB = 0xFF;
  7848  010D88  690C               	setf	12,b	;volatile
  7849  010D8A                     
  7850                           ; BSR set to: 4
  7851                           ;mcc_generated_files/pin_manager.c: 130:     INLVLC = 0xFF;
  7852  010D8A  6914               	setf	20,b	;volatile
  7853  010D8C                     
  7854                           ; BSR set to: 4
  7855                           ;mcc_generated_files/pin_manager.c: 131:     INLVLD = 0xFF;
  7856  010D8C  691C               	setf	28,b	;volatile
  7857                           
  7858                           ;mcc_generated_files/pin_manager.c: 132:     INLVLE = 0x0F;
  7859  010D8E  0E0F               	movlw	15
  7860  010D90  6F24               	movwf	36,b	;volatile
  7861  010D92                     
  7862                           ; BSR set to: 4
  7863                           ;mcc_generated_files/pin_manager.c: 133:     INLVLF = 0xFF;
  7864  010D92  692C               	setf	44,b	;volatile
  7865                           
  7866                           ;mcc_generated_files/pin_manager.c: 142:     SPI1SCKPPS = 0x16;
  7867  010D94  0E16               	movlw	22
  7868  010D96  0102               	movlb	2	; () banked
  7869  010D98  6F6A               	movwf	106,b	;volatile
  7870                           
  7871                           ;mcc_generated_files/pin_manager.c: 143:     RC4PPS = 0x32;
  7872  010D9A  0E32               	movlw	50
  7873  010D9C  6F15               	movwf	21,b	;volatile
  7874                           
  7875                           ;mcc_generated_files/pin_manager.c: 144:     RC6PPS = 0x31;
  7876  010D9E  0E31               	movlw	49
  7877  010DA0  6F17               	movwf	23,b	;volatile
  7878                           
  7879                           ;mcc_generated_files/pin_manager.c: 145:     SPI1SDIPPS = 0x15;
  7880  010DA2  0E15               	movlw	21
  7881  010DA4  6F6B               	movwf	107,b	;volatile
  7882  010DA6                     
  7883                           ; BSR set to: 2
  7884  010DA6  0012               	return		;funcret
  7885  010DA8                     __end_of_PIN_MANAGER_Initialize:
  7886                           	callstack 0
  7887                           
  7888 ;; *************** function _OSCILLATOR_Initialize *****************
  7889 ;; Defined at:
  7890 ;;		line 60 in file "mcc_generated_files/mcc.c"
  7891 ;; Parameters:    Size  Location     Type
  7892 ;;		None
  7893 ;; Auto vars:     Size  Location     Type
  7894 ;;		None
  7895 ;; Return value:  Size  Location     Type
  7896 ;;                  1    wreg      void 
  7897 ;; Registers used:
  7898 ;;		wreg, status,2
  7899 ;; Tracked objects:
  7900 ;;		On entry : 0/0
  7901 ;;		On exit  : 0/0
  7902 ;;		Unchanged: 0/0
  7903 ;; Data sizes:     COMRAM   BANK5   BANK6   BANK7   BANK8   BANK9  BANK10  BANK11  BANK12  BANK13  BANK14  BANK15  BANK1
      +6  BANK17  BANK18  BANK19  BANK20  BANK21  BANK22  BANK23  BANK24  BANK25  BANK26  BANK27  BANK28  BANK29  BANK30  BANK3
      +1  BANK32  BANK33  BANK34  BANK35  BANK36  BANK37
  7904 ;;      Params:         0       0       0       0       0       0       0       0       0       0       0       0       
      +0       0       0       0       0       0       0       0       0       0       0       0       0       0       0       
      +0       0       0       0       0       0       0
  7905 ;;      Locals:         0       0       0       0       0       0       0       0       0       0       0       0       
      +0       0       0       0       0       0       0       0       0       0       0       0       0       0       0       
      +0       0       0       0       0       0       0
  7906 ;;      Temps:          0       0       0       0       0       0       0       0       0       0       0       0       
      +0       0       0       0       0       0       0       0       0       0       0       0       0       0       0       
      +0       0       0       0       0       0       0
  7907 ;;      Totals:         0       0       0       0       0       0       0       0       0       0       0       0       
      +0       0       0       0       0       0       0       0       0       0       0       0       0       0       0       
      +0       0       0       0       0       0       0
  7908 ;;Total ram usage:        0 bytes
  7909 ;; Hardware stack levels used: 1
  7910 ;; This function calls:
  7911 ;;		Nothing
  7912 ;; This function is called by:
  7913 ;;		_SYSTEM_Initialize
  7914 ;; This function uses a non-reentrant model
  7915 ;;
  7916                           
  7917                           	psect	text52
  7918  01186C                     __ptext52:
  7919                           	callstack 0
  7920  01186C                     _OSCILLATOR_Initialize:
  7921                           	callstack 126
  7922  01186C                     
  7923                           ;mcc_generated_files/mcc.c: 63:     OSCCON1 = 0x60;
  7924  01186C  0E60               	movlw	96
  7925  01186E  0100               	movlb	0	; () banked
  7926  011870  6FAD               	movwf	173,b	;volatile
  7927                           
  7928                           ;mcc_generated_files/mcc.c: 65:     OSCCON3 = 0x00;
  7929  011872  0E00               	movlw	0
  7930  011874  6FAF               	movwf	175,b	;volatile
  7931                           
  7932                           ;mcc_generated_files/mcc.c: 67:     OSCEN = 0x00;
  7933  011876  0E00               	movlw	0
  7934  011878  6FB3               	movwf	179,b	;volatile
  7935                           
  7936                           ;mcc_generated_files/mcc.c: 69:     OSCFRQ = 0x03;
  7937  01187A  0E03               	movlw	3
  7938  01187C  6FB1               	movwf	177,b	;volatile
  7939                           
  7940                           ;mcc_generated_files/mcc.c: 71:     OSCTUNE = 0x00;
  7941  01187E  0E00               	movlw	0
  7942  011880  6FB0               	movwf	176,b	;volatile
  7943                           
  7944                           ;mcc_generated_files/mcc.c: 73:     ACTCON = 0x00;
  7945  011882  0E00               	movlw	0
  7946  011884  6FAC               	movwf	172,b	;volatile
  7947  011886                     
  7948                           ; BSR set to: 0
  7949  011886  0012               	return		;funcret
  7950  011888                     __end_of_OSCILLATOR_Initialize:
  7951                           	callstack 0
  7952                           
  7953                           	psect	text53
  7954  000000                     __ptext53:
  7955                           	callstack 0
  7956  000000                     
  7957                           	psect	rparam
  7958  0000                     
  7959                           	psect	idloc
  7960                           
  7961                           ;Config register IDLOC0 @ 0x200000
  7962                           ;	unspecified, using default values
  7963  200000                     	org	2097152
  7964  200000  0FFF               	dw	4095
  7965                           
  7966                           ;Config register IDLOC1 @ 0x200002
  7967                           ;	unspecified, using default values
  7968  200002                     	org	2097154
  7969  200002  0FFF               	dw	4095
  7970                           
  7971                           ;Config register IDLOC2 @ 0x200004
  7972                           ;	unspecified, using default values
  7973  200004                     	org	2097156
  7974  200004  0FFF               	dw	4095
  7975                           
  7976                           ;Config register IDLOC3 @ 0x200006
  7977                           ;	unspecified, using default values
  7978  200006                     	org	2097158
  7979  200006  0FFF               	dw	4095
  7980                           
  7981                           ;Config register IDLOC4 @ 0x200008
  7982                           ;	unspecified, using default values
  7983  200008                     	org	2097160
  7984  200008  0FFF               	dw	4095
  7985                           
  7986                           ;Config register IDLOC5 @ 0x20000A
  7987                           ;	unspecified, using default values
  7988  20000A                     	org	2097162
  7989  20000A  0FFF               	dw	4095
  7990                           
  7991                           ;Config register IDLOC6 @ 0x20000C
  7992                           ;	unspecified, using default values
  7993  20000C                     	org	2097164
  7994  20000C  0FFF               	dw	4095
  7995                           
  7996                           ;Config register IDLOC7 @ 0x20000E
  7997                           ;	unspecified, using default values
  7998  20000E                     	org	2097166
  7999  20000E  0FFF               	dw	4095
  8000                           
  8001                           ;Config register IDLOC8 @ 0x200010
  8002                           ;	unspecified, using default values
  8003  200010                     	org	2097168
  8004  200010  0FFF               	dw	4095
  8005                           
  8006                           ;Config register IDLOC9 @ 0x200012
  8007                           ;	unspecified, using default values
  8008  200012                     	org	2097170
  8009  200012  0FFF               	dw	4095
  8010                           
  8011                           ;Config register IDLOC10 @ 0x200014
  8012                           ;	unspecified, using default values
  8013  200014                     	org	2097172
  8014  200014  0FFF               	dw	4095
  8015                           
  8016                           ;Config register IDLOC11 @ 0x200016
  8017                           ;	unspecified, using default values
  8018  200016                     	org	2097174
  8019  200016  0FFF               	dw	4095
  8020                           
  8021                           ;Config register IDLOC12 @ 0x200018
  8022                           ;	unspecified, using default values
  8023  200018                     	org	2097176
  8024  200018  0FFF               	dw	4095
  8025                           
  8026                           ;Config register IDLOC13 @ 0x20001A
  8027                           ;	unspecified, using default values
  8028  20001A                     	org	2097178
  8029  20001A  0FFF               	dw	4095
  8030                           
  8031                           ;Config register IDLOC14 @ 0x20001C
  8032                           ;	unspecified, using default values
  8033  20001C                     	org	2097180
  8034  20001C  0FFF               	dw	4095
  8035                           
  8036                           ;Config register IDLOC15 @ 0x20001E
  8037                           ;	unspecified, using default values
  8038  20001E                     	org	2097182
  8039  20001E  0FFF               	dw	4095
  8040                           
  8041                           	psect	config
  8042                           
  8043                           ;Config register CONFIG1 @ 0x300000
  8044                           ;	External Oscillator Selection
  8045                           ;	FEXTOSC = OFF, Oscillator not enabled
  8046                           ;	Reset Oscillator Selection
  8047                           ;	RSTOSC = HFINTOSC_1MHZ, HFINTOSC with HFFRQ = 4 MHz and CDIV = 4:1
  8048  300000                     	org	3145728
  8049  300000  EC                 	db	236
  8050                           
  8051                           ;Config register CONFIG2 @ 0x300001
  8052                           ;	Clock out Enable bit
  8053                           ;	CLKOUTEN = OFF, CLKOUT function is disabled
  8054                           ;	PRLOCKED One-Way Set Enable bit
  8055                           ;	PR1WAY = ON, PRLOCKED bit can be cleared and set only once
  8056                           ;	Clock Switch Enable bit
  8057                           ;	CSWEN = ON, Writing to NOSC and NDIV is allowed
  8058                           ;	Fail-Safe Clock Monitor Enable bit
  8059                           ;	FCMEN = ON, Fail-Safe Clock Monitor enabled
  8060  300001                     	org	3145729
  8061  300001  FF                 	db	255
  8062                           
  8063                           ;Config register CONFIG3 @ 0x300002
  8064                           ;	MCLR Enable bit
  8065                           ;	MCLRE = EXTMCLR, If LVP = 0, MCLR pin is MCLR; If LVP = 1, RE3 pin function is MCLR
  8066                           ;	Power-up timer selection bits
  8067                           ;	PWRTS = PWRT_OFF, PWRT is disabled
  8068                           ;	Multi-vector enable bit
  8069                           ;	MVECEN = OFF, Interrupt contoller does not use vector table to prioritze interrupts
  8070                           ;	IVTLOCK bit One-way set enable bit
  8071                           ;	IVT1WAY = ON, IVTLOCKED bit can be cleared and set only once
  8072                           ;	Low Power BOR Enable bit
  8073                           ;	LPBOREN = OFF, Low-Power BOR disabled
  8074                           ;	Brown-out Reset Enable bits
  8075                           ;	BOREN = SBORDIS, Brown-out Reset enabled , SBOREN bit is ignored
  8076  300002                     	org	3145730
  8077  300002  F7                 	db	247
  8078                           
  8079                           ;Config register CONFIG4 @ 0x300003
  8080                           ;	Brown-out Reset Voltage Selection bits
  8081                           ;	BORV = VBOR_1P9, Brown-out Reset Voltage (VBOR) set to 1.9V
  8082                           ;	ZCD Disable bit
  8083                           ;	ZCD = OFF, ZCD module is disabled. ZCD can be enabled by setting the ZCDSEN bit of ZCD
      +                          CON
  8084                           ;	PPSLOCK bit One-Way Set Enable bit
  8085                           ;	PPS1WAY = ON, PPSLOCKED bit can be cleared and set only once; PPS registers remain loc
      +                          ked after one clear/set cycle
  8086                           ;	Stack Full/Underflow Reset Enable bit
  8087                           ;	STVREN = ON, Stack full/underflow will cause Reset
  8088                           ;	Low Voltage Programming Enable bit
  8089                           ;	LVP = ON, Low voltage programming enabled. MCLR/VPP pin function is MCLR. MCLRE config
      +                          uration bit is ignored
  8090                           ;	Extended Instruction Set Enable bit
  8091                           ;	XINST = OFF, Extended Instruction Set and Indexed Addressing Mode disabled
  8092  300003                     	org	3145731
  8093  300003  FF                 	db	255
  8094                           
  8095                           ;Config register CONFIG5 @ 0x300004
  8096                           ;	WDT Period selection bits
  8097                           ;	WDTCPS = WDTCPS_31, Divider ratio 1:65536; software control of WDTPS
  8098                           ;	WDT operating mode
  8099                           ;	WDTE = OFF, WDT Disabled; SWDTEN is ignored
  8100  300004                     	org	3145732
  8101  300004  9F                 	db	159
  8102                           
  8103                           ;Config register CONFIG6 @ 0x300005
  8104                           ;	WDT Window Select bits
  8105                           ;	WDTCWS = WDTCWS_7, window always open (100%); software control; keyed access not requi
      +                          red
  8106                           ;	WDT input clock selector
  8107                           ;	WDTCCS = SC, Software Control
  8108  300005                     	org	3145733
  8109  300005  FF                 	db	255
  8110                           
  8111                           ;Config register CONFIG7 @ 0x300006
  8112                           ;	Boot Block Size selection bits
  8113                           ;	BBSIZE = BBSIZE_512, Boot Block size is 512 words
  8114                           ;	Boot Block enable bit
  8115                           ;	BBEN = OFF, Boot block disabled
  8116                           ;	Storage Area Flash enable bit
  8117                           ;	SAFEN = OFF, SAF disabled
  8118                           ;	Background Debugger
  8119                           ;	DEBUG = OFF, Background Debugger disabled
  8120  300006                     	org	3145734
  8121  300006  FF                 	db	255
  8122                           
  8123                           ;Config register CONFIG8 @ 0x300007
  8124                           ;	Boot Block Write Protection bit
  8125                           ;	WRTB = OFF, Boot Block not Write protected
  8126                           ;	Configuration Register Write Protection bit
  8127                           ;	WRTC = OFF, Configuration registers not Write protected
  8128                           ;	Data EEPROM Write Protection bit
  8129                           ;	WRTD = OFF, Data EEPROM not Write protected
  8130                           ;	SAF Write protection bit
  8131                           ;	WRTSAF = OFF, SAF not Write Protected
  8132                           ;	Application Block write protection bit
  8133                           ;	WRTAPP = OFF, Application Block not write protected
  8134  300007                     	org	3145735
  8135  300007  FF                 	db	255
  8136                           
  8137                           ; Padding undefined space
  8138  300008                     	org	3145736
  8139  300008  FF                 	db	255
  8140                           
  8141                           ;Config register CONFIG10 @ 0x300009
  8142                           ;	PFM and Data EEPROM Code Protection bit
  8143                           ;	CP = OFF, PFM and Data EEPROM code protection disabled
  8144  300009                     	org	3145737
  8145  300009  FF                 	db	255
  8146                           tosu	equ	0x4FF
  8147                           tosh	equ	0x4FE
  8148                           tosl	equ	0x4FD
  8149                           stkptr	equ	0x4FC
  8150                           pclatu	equ	0x4FB
  8151                           pclath	equ	0x4FA
  8152                           pcl	equ	0x4F9
  8153                           tblptru	equ	0x4F8
  8154                           tblptrh	equ	0x4F7
  8155                           tblptrl	equ	0x4F6
  8156                           tablat	equ	0x4F5
  8157                           prodh	equ	0x4F4
  8158                           prodl	equ	0x4F3
  8159                           indf0	equ	0x4EF
  8160                           postinc0	equ	0x4EE
  8161                           postdec0	equ	0x4ED
  8162                           preinc0	equ	0x4EC
  8163                           plusw0	equ	0x4EB
  8164                           fsr0h	equ	0x4EA
  8165                           fsr0l	equ	0x4E9
  8166                           wreg	equ	0x4E8
  8167                           indf1	equ	0x4E7
  8168                           postinc1	equ	0x4E6
  8169                           postdec1	equ	0x4E5
  8170                           preinc1	equ	0x4E4
  8171                           plusw1	equ	0x4E3
  8172                           fsr1h	equ	0x4E2
  8173                           fsr1l	equ	0x4E1
  8174                           bsr	equ	0x4E0
  8175                           indf2	equ	0x4DF
  8176                           postinc2	equ	0x4DE
  8177                           postdec2	equ	0x4DD
  8178                           preinc2	equ	0x4DC
  8179                           plusw2	equ	0x4DB
  8180                           fsr2h	equ	0x4DA
  8181                           fsr2l	equ	0x4D9
  8182                           status	equ	0x4D8

Data Sizes:
    Strings     0
    Constant    905
    Data        1
    BSS         452
    Persistent  0
    Stack       0

Auto Spaces:
    Space          Size  Autos    Used
    COMRAM           95     76      81
    BANK5           160      0       0
    BANK6           256      0       0
    BANK7           256      0       0
    BANK8           256      0       0
    BANK9           256      0       0
    BANK10          256      0       0
    BANK11          256      0       0
    BANK12          256      0       0
    BANK13          256      0       0
    BANK14          256      0       0
    BANK15          256      0       0
    BANK16          256      0       0
    BANK17          256      0       0
    BANK18          256      0       0
    BANK19          256      0       0
    BANK20          256      0       0
    BANK21          256      0       0
    BANK22          256      0       0
    BANK23          256      0       0
    BANK24          256      0       0
    BANK25          256      0       0
    BANK26          256      0       0
    BANK27          256      0       0
    BANK28          256      0       0
    BANK29          256      0       0
    BANK30          256      0       0
    BANK31          256      0       0
    BANK32          256      0       0
    BANK33          256      0       0
    BANK34          256      0       0
    BANK35          256      0       0
    BANK36          256      0       0
    BANK37          256      0       0

Pointer List with Targets:

    allParsedShapes.params.bit_array	PTR unsigned long  size(2) Largest target is 0
		 -> logo(CODE[92]), 

    allParsedShapes.params.string	PTR unsigned char  size(2) Largest target is 0
		 -> logo(CODE[92]), 

    S1319$3$0	PTR void  size(2) Largest target is 0

    S1319$5$0	PTR void  size(2) Largest target is 0

    Absolute function$0	PTR FTN()void  size(3) Largest target is 0

    dummyshape@shape	PTR struct shape size(2) Largest target is 480
		 -> allParsedShapes(BIGRAM[448]), 

    S93$1$0	PTR struct shape size(2) Largest target is 480
		 -> allParsedShapes(BIGRAM[448]), 

    S1319$4$0	PTR void  size(2) Largest target is 2
		 -> oledC_setDisplayOrientation@payload(COMRAM[1]), oledC_setColumnAddressBounds@payload(COMRAM[2]), oledC_setRowAddressBounds@payload(COMRAM[2]), NULL(NULL[0]), 

    SPI1_WriteBlock@block	PTR void  size(2) Largest target is 2
		 -> oledC_setDisplayOrientation@payload(COMRAM[1]), oledC_setColumnAddressBounds@payload(COMRAM[2]), oledC_setRowAddressBounds@payload(COMRAM[2]), NULL(NULL[0]), 

    SPI1_WriteBlock@data	PTR unsigned char  size(2) Largest target is 2
		 -> oledC_setDisplayOrientation@payload(COMRAM[1]), oledC_setColumnAddressBounds@payload(COMRAM[2]), oledC_setRowAddressBounds@payload(COMRAM[2]), NULL(NULL[0]), 

    oledC_eraseShape@ourShape.bit_array	PTR unsigned long  size(2) Largest target is 92
		 -> logo(CODE[92]), 

    oledC_eraseShape@ourShape.string	PTR unsigned char  size(2) Largest target is 92
		 -> logo(CODE[92]), 

    oledC_eraseShape@ourShape.params.bitmap.bit_array	PTR unsigned long  size(2) Largest target is 92
		 -> logo(CODE[92]), 

    oledC_eraseShape@ourShape.params.string.string	PTR unsigned char  size(2) Largest target is 92
		 -> logo(CODE[92]), 

    oledC_eraseShape@ourShape.draw	PTR FTN(PTR struct shape,)void  size(3) Largest target is 1
		 -> dummyshape(), drawPoint(), drawBitmap(), drawString(), 
		 -> drawCharacter(), drawLine(), drawRectangle(), drawRing(), 
		 -> drawCircle(), 

    oledC_eraseShape@ourShape	PTR struct shape size(2) Largest target is 480
		 -> allParsedShapes(BIGRAM[448]), 

    oledC_addShape@params	PTR struct shape_params_t size(2) Largest target is 10
		 -> oledC_example_setup@params(COMRAM[9]), 

    oledC_addShape@newShape	PTR struct shape size(2) Largest target is 480
		 -> allParsedShapes(BIGRAM[448]), 

    allParsedShapes.params.bitmap.bit_array	PTR unsigned long  size(2) Largest target is 92
		 -> logo(CODE[92]), 

    allParsedShapes.params.string.string	PTR unsigned char  size(2) Largest target is 92
		 -> logo(CODE[92]), 

    allParsedShapes.draw	PTR FTN(PTR struct shape,)void  size(3) Largest target is 1
		 -> dummyshape(), drawPoint(), drawBitmap(), drawString(), 
		 -> drawCharacter(), drawLine(), drawRectangle(), drawRing(), 
		 -> drawCircle(), 

    oledC_sendCommand@payload	PTR unsigned char  size(2) Largest target is 2
		 -> oledC_setDisplayOrientation@payload(COMRAM[1]), oledC_setColumnAddressBounds@payload(COMRAM[2]), oledC_setRowAddressBounds@payload(COMRAM[2]), NULL(NULL[0]), 

    S1319$spiISR	PTR FTN()void  size(3) Largest target is 1
		 -> Absolute function(), 

    spiMaster.spiISR	PTR FTN()void  size(3) Largest target is 1
		 -> Absolute function(), 

    S1319$setSpiISR	PTR FTN(PTR FTN()void ,)void  size(3) Largest target is 1
		 -> Absolute function(), 

    spiMaster.setSpiISR	PTR FTN(PTR FTN()void ,)void  size(3) Largest target is 1
		 -> Absolute function(), 

    S1319$readByte	PTR FTN()unsigned char  size(3) Largest target is 1
		 -> SPI1_ReadByte(), 

    spiMaster.readByte	PTR FTN()unsigned char  size(3) Largest target is 1
		 -> SPI1_ReadByte(), 

    S1319$writeByte	PTR FTN(unsigned char ,)void  size(3) Largest target is 1
		 -> SPI1_WriteByte(), 

    spiMaster.writeByte	PTR FTN(unsigned char ,)void  size(3) Largest target is 1
		 -> SPI1_WriteByte(), 

    S1319$readBlock	PTR FTN(PTR void ,unsigned int ,)void  size(3) Largest target is 1
		 -> SPI1_ReadBlock(), 

    spiMaster.readBlock	PTR FTN(PTR void ,unsigned int ,)void  size(3) Largest target is 1
		 -> SPI1_ReadBlock(), 

    S1319$writeBlock	PTR FTN(PTR void ,unsigned int ,)void  size(3) Largest target is 1
		 -> SPI1_WriteBlock(), 

    spiMaster.writeBlock	PTR FTN(PTR void ,unsigned int ,)void  size(3) Largest target is 1
		 -> SPI1_WriteBlock(), 

    S1319$exchangeBlock	PTR FTN(PTR void ,unsigned int ,)void  size(3) Largest target is 1
		 -> SPI1_ExchangeBlock(), 

    spiMaster.exchangeBlock	PTR FTN(PTR void ,unsigned int ,)void  size(3) Largest target is 1
		 -> SPI1_ExchangeBlock(), 

    S1319$exchangeByte	PTR FTN(unsigned char ,)unsigned char  size(3) Largest target is 1
		 -> SPI1_ExchangeByte(), 

    spiMaster.exchangeByte	PTR FTN(unsigned char ,)unsigned char  size(3) Largest target is 1
		 -> SPI1_ExchangeByte(), 

    S1319$spiOpen	PTR FTN()_Bool  size(3) Largest target is 1
		 -> oledC_open(), 

    spiMaster.spiOpen	PTR FTN()_Bool  size(3) Largest target is 1
		 -> oledC_open(), 

    S1319$spiClose	PTR FTN()void  size(3) Largest target is 1
		 -> SPI1_Close(), 

    spiMaster.spiClose	PTR FTN()void  size(3) Largest target is 1
		 -> SPI1_Close(), 

    oledC_example@moveIt.params.bit_array	PTR unsigned long  size(2) Largest target is 92
		 -> logo(CODE[92]), 

    oledC_example@moveIt.bit_array	PTR unsigned long  size(2) Largest target is 92
		 -> logo(CODE[92]), 

    oledC_example@moveIt.string	PTR unsigned char  size(2) Largest target is 92
		 -> logo(CODE[92]), 

    oledC_example@moveIt.params.bitmap.bit_array	PTR unsigned long  size(2) Largest target is 92
		 -> logo(CODE[92]), 

    oledC_example@moveIt.params.string.string	PTR unsigned char  size(2) Largest target is 92
		 -> logo(CODE[92]), 

    oledC_example@moveIt.draw	PTR FTN(PTR struct shape,)void  size(3) Largest target is 1
		 -> dummyshape(), drawPoint(), drawBitmap(), drawString(), 
		 -> drawCharacter(), drawLine(), drawRectangle(), drawRing(), 
		 -> drawCircle(), 

    sp__oledC_getShape	PTR struct shape size(2) Largest target is 480
		 -> allParsedShapes(BIGRAM[448]), 

    oledC_example@moveIt	PTR struct shape size(2) Largest target is 480
		 -> allParsedShapes(BIGRAM[448]), 

    oledC_example_setup@params.bit_array	PTR unsigned long  size(2) Largest target is 92
		 -> logo(CODE[92]), 

    params.bitmap.bit_array	PTR unsigned long  size(2) Largest target is 92
		 -> logo(CODE[92]), 

    params.string.string	PTR unsigned char  size(2) Largest target is 92
		 -> logo(CODE[92]), 

    drawBitmap@shape.params.bit_array	PTR unsigned long  size(2) Largest target is 92
		 -> logo(CODE[92]), 

    drawBitmap@shape.params.bitmap.bit_array	PTR unsigned long  size(2) Largest target is 92
		 -> logo(CODE[92]), 

    drawBitmap@shape.params.string.string	PTR unsigned char  size(2) Largest target is 92
		 -> logo(CODE[92]), 

    drawBitmap@shape.draw	PTR FTN(PTR struct shape,)void  size(3) Largest target is 1
		 -> dummyshape(), drawPoint(), drawBitmap(), drawString(), 
		 -> drawCharacter(), drawLine(), drawRectangle(), drawRing(), 
		 -> drawCircle(), 

    drawBitmap@shape	PTR struct shape size(2) Largest target is 480
		 -> allParsedShapes(BIGRAM[448]), 

    drawString@shape.params.string	PTR unsigned char  size(2) Largest target is 92
		 -> logo(CODE[92]), 

    drawString@shape.params.bitmap.bit_array	PTR unsigned long  size(2) Largest target is 92
		 -> logo(CODE[92]), 

    drawString@shape.params.string.string	PTR unsigned char  size(2) Largest target is 92
		 -> logo(CODE[92]), 

    drawString@shape.draw	PTR FTN(PTR struct shape,)void  size(3) Largest target is 1
		 -> dummyshape(), drawPoint(), drawBitmap(), drawString(), 
		 -> drawCharacter(), drawLine(), drawRectangle(), drawRing(), 
		 -> drawCircle(), 

    drawString@shape	PTR struct shape size(2) Largest target is 480
		 -> allParsedShapes(BIGRAM[448]), 

    drawCharacter@shape.params.bitmap.bit_array	PTR unsigned long  size(2) Largest target is 92
		 -> logo(CODE[92]), 

    drawCharacter@shape.params.string.string	PTR unsigned char  size(2) Largest target is 92
		 -> logo(CODE[92]), 

    drawCharacter@shape.draw	PTR FTN(PTR struct shape,)void  size(3) Largest target is 1
		 -> dummyshape(), drawPoint(), drawBitmap(), drawString(), 
		 -> drawCharacter(), drawLine(), drawRectangle(), drawRing(), 
		 -> drawCircle(), 

    drawCharacter@shape	PTR struct shape size(2) Largest target is 480
		 -> allParsedShapes(BIGRAM[448]), 

    drawLine@shape.params.bitmap.bit_array	PTR unsigned long  size(2) Largest target is 92
		 -> logo(CODE[92]), 

    drawLine@shape.params.string.string	PTR unsigned char  size(2) Largest target is 92
		 -> logo(CODE[92]), 

    drawLine@shape.draw	PTR FTN(PTR struct shape,)void  size(3) Largest target is 1
		 -> dummyshape(), drawPoint(), drawBitmap(), drawString(), 
		 -> drawCharacter(), drawLine(), drawRectangle(), drawRing(), 
		 -> drawCircle(), 

    drawLine@shape	PTR struct shape size(2) Largest target is 480
		 -> allParsedShapes(BIGRAM[448]), 

    drawRectangle@shape.params.bitmap.bit_array	PTR unsigned long  size(2) Largest target is 92
		 -> logo(CODE[92]), 

    drawRectangle@shape.params.string.string	PTR unsigned char  size(2) Largest target is 92
		 -> logo(CODE[92]), 

    drawRectangle@shape.draw	PTR FTN(PTR struct shape,)void  size(3) Largest target is 1
		 -> dummyshape(), drawPoint(), drawBitmap(), drawString(), 
		 -> drawCharacter(), drawLine(), drawRectangle(), drawRing(), 
		 -> drawCircle(), 

    drawRectangle@shape	PTR struct shape size(2) Largest target is 480
		 -> allParsedShapes(BIGRAM[448]), 

    drawRing@shape.params.bitmap.bit_array	PTR unsigned long  size(2) Largest target is 92
		 -> logo(CODE[92]), 

    drawRing@shape.params.string.string	PTR unsigned char  size(2) Largest target is 92
		 -> logo(CODE[92]), 

    drawRing@shape.draw	PTR FTN(PTR struct shape,)void  size(3) Largest target is 1
		 -> dummyshape(), drawPoint(), drawBitmap(), drawString(), 
		 -> drawCharacter(), drawLine(), drawRectangle(), drawRing(), 
		 -> drawCircle(), 

    drawRing@shape	PTR struct shape size(2) Largest target is 480
		 -> allParsedShapes(BIGRAM[448]), 

    drawCircle@shape.params.bitmap.bit_array	PTR unsigned long  size(2) Largest target is 92
		 -> logo(CODE[92]), 

    drawCircle@shape.params.string.string	PTR unsigned char  size(2) Largest target is 92
		 -> logo(CODE[92]), 

    drawCircle@shape.draw	PTR FTN(PTR struct shape,)void  size(3) Largest target is 1
		 -> dummyshape(), drawPoint(), drawBitmap(), drawString(), 
		 -> drawCharacter(), drawLine(), drawRectangle(), drawRing(), 
		 -> drawCircle(), 

    drawCircle@shape	PTR struct shape size(2) Largest target is 480
		 -> allParsedShapes(BIGRAM[448]), 

    drawPoint@shape.params.bitmap.bit_array	PTR unsigned long  size(2) Largest target is 92
		 -> logo(CODE[92]), 

    drawPoint@shape.params.string.string	PTR unsigned char  size(2) Largest target is 92
		 -> logo(CODE[92]), 

    drawPoint@shape.draw	PTR FTN(PTR struct shape,)void  size(3) Largest target is 1
		 -> dummyshape(), drawPoint(), drawBitmap(), drawString(), 
		 -> drawCharacter(), drawLine(), drawRectangle(), drawRing(), 
		 -> drawCircle(), 

    drawPoint@shape	PTR struct shape size(2) Largest target is 480
		 -> allParsedShapes(BIGRAM[448]), 

    oledC_DrawBitmap@bitmap	PTR unsigned long  size(2) Largest target is 92
		 -> logo(CODE[92]), 

    oledC_DrawString@string	PTR unsigned char  size(2) Largest target is 92
		 -> logo(CODE[92]), 

    oledC_DrawCharacter@f	PTR const unsigned char  size(2) Largest target is 475
		 -> font(CODE[475]), 

    oledC_createShape@newShape.params.bit_array	PTR unsigned long  size(2) Largest target is 92
		 -> logo(CODE[92]), 

    oledC_createShape@newShape.params.string	PTR unsigned char  size(2) Largest target is 92
		 -> logo(CODE[92]), 

    oledC_createShape@params	PTR struct shape_params_t size(2) Largest target is 10
		 -> oledC_example_setup@params(COMRAM[9]), 

    S75$bit_array	PTR unsigned long  size(2) Largest target is 92
		 -> logo(CODE[92]), 

    oledC_createShape@newShape.params.bitmap.bit_array	PTR unsigned long  size(2) Largest target is 92
		 -> logo(CODE[92]), 

    S68$string	PTR unsigned char  size(2) Largest target is 92
		 -> logo(CODE[92]), 

    oledC_createShape@newShape.params.string.string	PTR unsigned char  size(2) Largest target is 92
		 -> logo(CODE[92]), 

    S93shape$draw	PTR FTN(PTR struct shape,)void  size(3) Largest target is 1
		 -> dummyshape(), drawPoint(), drawBitmap(), drawString(), 
		 -> drawCharacter(), drawLine(), drawRectangle(), drawRing(), 
		 -> drawCircle(), 

    oledC_createShape@newShape.draw	PTR FTN(PTR struct shape,)void  size(3) Largest target is 1
		 -> dummyshape(), drawPoint(), drawBitmap(), drawString(), 
		 -> drawCharacter(), drawLine(), drawRectangle(), drawRing(), 
		 -> drawCircle(), 

    oledC_createShape@newShape	PTR struct shape size(2) Largest target is 480
		 -> allParsedShapes(BIGRAM[448]), 


Critical Paths under _main in COMRAM

    _SYSTEM_Initialize->_oledC_example
    _oledC_setup->_oledC_setColumnAddressBounds
    _oledC_setup->_oledC_setRowAddressBounds
    _oledC_setSleepMode->_oledC_sendCommand
    _oledC_setDisplayOrientation->_oledC_sendCommand
    _oledC_example->_oledC_example_setup
    _oledC_redrawIndex->_drawBitmap
    _oledC_redrawIndex->_drawCharacter
    _oledC_redrawIndex->_drawCircle
    _oledC_redrawIndex->_drawLine
    _oledC_redrawIndex->_drawPoint
    _oledC_redrawIndex->_drawRectangle
    _oledC_redrawIndex->_drawRing
    _oledC_redrawIndex->_drawString
    _oledC_redrawIndex->_dummyshape
    _oledC_setBackground->_oledC_clearScreen
    _oledC_clearScreen->_oledC_setColumnAddressBounds
    _oledC_clearScreen->_oledC_setRowAddressBounds
    _oledC_redrawAll->_oledC_redrawSome
    _oledC_redrawSome->_drawBitmap
    _oledC_redrawSome->_drawCharacter
    _oledC_redrawSome->_drawCircle
    _oledC_redrawSome->_drawLine
    _oledC_redrawSome->_drawPoint
    _oledC_redrawSome->_drawRectangle
    _oledC_redrawSome->_drawRing
    _oledC_redrawSome->_drawString
    _oledC_redrawSome->_dummyshape
    _oledC_addShape->_oledC_createShape
    _oledC_eraseShape->_drawBitmap
    _oledC_eraseShape->_drawCharacter
    _oledC_eraseShape->_drawCircle
    _oledC_eraseShape->_drawLine
    _oledC_eraseShape->_drawPoint
    _oledC_eraseShape->_drawRectangle
    _oledC_eraseShape->_drawRing
    _oledC_eraseShape->_drawString
    _oledC_eraseShape->_dummyshape
    _drawString->_oledC_DrawString
    _oledC_DrawString->_oledC_DrawCharacter
    _oledC_DrawRing->_oledC_DrawPoint
    _oledC_DrawLine->_oledC_DrawCircle
    _oledC_DrawCircle->_oledC_DrawPoint
    _oledC_DrawPoint->_oledC_setColumnAddressBounds
    _oledC_DrawPoint->_oledC_setRowAddressBounds
    _oledC_DrawCharacter->_oledC_DrawRectangle
    _oledC_DrawBitmap->_oledC_DrawRectangle
    _oledC_DrawRectangle->_oledC_setColumnAddressBounds
    _oledC_DrawRectangle->_oledC_setRowAddressBounds
    _oledC_setRowAddressBounds->_oledC_sendCommand
    _oledC_setColumnAddressBounds->_oledC_sendCommand
    _oledC_startWritingDisplay->_oledC_sendCommand
    _oledC_sendCommand->_SPI1_WriteBlock
    _SPI1_WriteBlock->_SPI1_ExchangeByte
    _oledC_open->_SPI1_Open

Critical Paths under _main in BANK5

    None.

Critical Paths under _main in BANK6

    None.

Critical Paths under _main in BANK7

    None.

Critical Paths under _main in BANK8

    None.

Critical Paths under _main in BANK9

    None.

Critical Paths under _main in BANK10

    None.

Critical Paths under _main in BANK11

    None.

Critical Paths under _main in BANK12

    None.

Critical Paths under _main in BANK13

    None.

Critical Paths under _main in BANK14

    None.

Critical Paths under _main in BANK15

    None.

Critical Paths under _main in BANK16

    None.

Critical Paths under _main in BANK17

    None.

Critical Paths under _main in BANK18

    None.

Critical Paths under _main in BANK19

    None.

Critical Paths under _main in BANK20

    None.

Critical Paths under _main in BANK21

    None.

Critical Paths under _main in BANK22

    None.

Critical Paths under _main in BANK23

    None.

Critical Paths under _main in BANK24

    None.

Critical Paths under _main in BANK25

    None.

Critical Paths under _main in BANK26

    None.

Critical Paths under _main in BANK27

    None.

Critical Paths under _main in BANK28

    None.

Critical Paths under _main in BANK29

    None.

Critical Paths under _main in BANK30

    None.

Critical Paths under _main in BANK31

    None.

Critical Paths under _main in BANK32

    None.

Critical Paths under _main in BANK33

    None.

Critical Paths under _main in BANK34

    None.

Critical Paths under _main in BANK35

    None.

Critical Paths under _main in BANK36

    None.

Critical Paths under _main in BANK37

    None.

Call Graph Tables:

 ---------------------------------------------------------------------------------
 (Depth) Function   	        Calls       Base Space   Used Autos Params    Refs
 ---------------------------------------------------------------------------------
 (0) _main                                                 0     0      0  294294
                  _SYSTEM_Initialize
 ---------------------------------------------------------------------------------
 (1) _SYSTEM_Initialize                                    0     0      0  294294
              _OSCILLATOR_Initialize
             _PIN_MANAGER_Initialize
                     _PMD_Initialize
                    _SPI1_Initialize
                      _oledC_example
                        _oledC_setup
 ---------------------------------------------------------------------------------
 (2) _oledC_setup                                          0     0      0    7758
                 _DELAY_microseconds
                 _DELAY_milliseconds
       _oledC_setColumnAddressBounds
        _oledC_setDisplayOrientation
          _oledC_setRowAddressBounds
                 _oledC_setSleepMode
 ---------------------------------------------------------------------------------
 (3) _oledC_setSleepMode                                   2     2      0    1614
                                             11 COMRAM     2     2      0
                  _oledC_sendCommand
 ---------------------------------------------------------------------------------
 (3) _oledC_setDisplayOrientation                          1     1      0    1615
                                             11 COMRAM     1     1      0
                  _oledC_sendCommand
 ---------------------------------------------------------------------------------
 (3) _DELAY_milliseconds                                   3     1      2     250
                                              0 COMRAM     3     1      2
 ---------------------------------------------------------------------------------
 (3) _DELAY_microseconds                                   2     0      2     121
                                              0 COMRAM     2     0      2
 ---------------------------------------------------------------------------------
 (2) _oledC_example                                        3     3      0  286536
                                             74 COMRAM     2     2      0
                   _oledC_eraseShape
                _oledC_example_setup
                     _oledC_getShape
                  _oledC_redrawIndex
 ---------------------------------------------------------------------------------
 (3) _oledC_redrawIndex                                    1     1      0   92263
                                             60 COMRAM     1     1      0
                         _drawBitmap *
                      _drawCharacter *
                         _drawCircle *
                           _drawLine *
                          _drawPoint *
                      _drawRectangle *
                           _drawRing *
                         _drawString *
                         _dummyshape *
 ---------------------------------------------------------------------------------
 (3) _oledC_example_setup                                  9     9      0  101496
                                             65 COMRAM     9     9      0
                     _oledC_addShape
                    _oledC_redrawAll
                _oledC_setBackground
 ---------------------------------------------------------------------------------
 (4) _oledC_setBackground                                  2     0      2    6638
                                             21 COMRAM     2     0      2
                  _oledC_clearScreen
 ---------------------------------------------------------------------------------
 (5) _oledC_clearScreen                                    2     2      0    6540
                                             19 COMRAM     2     2      0
                 _oledC_sendColorInt
       _oledC_setColumnAddressBounds
          _oledC_setRowAddressBounds
 ---------------------------------------------------------------------------------
 (4) _oledC_redrawAll                                      0     0      0   92650
                   _oledC_redrawSome
 ---------------------------------------------------------------------------------
 (5) _oledC_redrawSome                                     5     4      1   92650
                                             60 COMRAM     5     4      1
                         _drawBitmap *
                      _drawCharacter *
                         _drawCircle *
                           _drawLine *
                          _drawPoint *
                      _drawRectangle *
                           _drawRing *
                         _drawString *
                         _dummyshape *
 ---------------------------------------------------------------------------------
 (4) _oledC_addShape                                       9     6      3    1798
                                              7 COMRAM     9     6      3
                  _oledC_createShape
 ---------------------------------------------------------------------------------
 (5) _oledC_createShape                                    7     3      4     768
                                              0 COMRAM     7     3      4
 ---------------------------------------------------------------------------------
 (3) _oledC_eraseShape                                     7     5      2   92640
                                             60 COMRAM     7     5      2
                         _drawBitmap *
                      _drawCharacter *
                         _drawCircle *
                           _drawLine *
                          _drawPoint *
                      _drawRectangle *
                           _drawRing *
                         _drawString *
                         _dummyshape *
                     _oledC_getShape
 ---------------------------------------------------------------------------------
 (3) _oledC_getShape                                       5     3      2      91
                                              0 COMRAM     5     3      2
 ---------------------------------------------------------------------------------
 (4) _dummyshape                                           2     0      2     159
                                             58 COMRAM     2     0      2
 ---------------------------------------------------------------------------------
 (4) _drawString                                           2     0      2    9526
                                             58 COMRAM     2     0      2
                   _oledC_DrawString
 ---------------------------------------------------------------------------------
 (5) _oledC_DrawString                                     8     1      7    9394
                                             50 COMRAM     8     1      7
                _oledC_DrawCharacter
 ---------------------------------------------------------------------------------
 (4) _drawRing                                             2     0      2   11992
                                             58 COMRAM     2     0      2
                     _oledC_DrawRing
 ---------------------------------------------------------------------------------
 (5) _oledC_DrawRing                                      11     6      5   11882
                                             23 COMRAM    11     6      5
                             ___wmul
                    _oledC_DrawPoint
 ---------------------------------------------------------------------------------
 (4) _drawRectangle                                        2     0      2    7716
                                             58 COMRAM     2     0      2
                _oledC_DrawRectangle
 ---------------------------------------------------------------------------------
 (4) _drawPoint                                            2     0      2    9512
                                             58 COMRAM     2     0      2
                    _oledC_DrawPoint
 ---------------------------------------------------------------------------------
 (4) _drawLine                                             2     0      2   23235
                                             58 COMRAM     2     0      2
                     _oledC_DrawLine
 ---------------------------------------------------------------------------------
 (5) _oledC_DrawLine                                      19    13      6   23103
                                             37 COMRAM    19    13      6
                            ___awdiv
                   _oledC_DrawCircle
                    _oledC_DrawPoint
 ---------------------------------------------------------------------------------
 (6) ___awdiv                                              8     4      4     452
                                              0 COMRAM     8     4      4
 ---------------------------------------------------------------------------------
 (4) _drawCircle                                           2     0      2   12263
                                             58 COMRAM     2     0      2
                   _oledC_DrawCircle
 ---------------------------------------------------------------------------------
 (6) _oledC_DrawCircle                                    14    10      4   12175
                                             23 COMRAM    14    10      4
                            ___awdiv (ARG)
                             ___wmul
                    _oledC_DrawPoint
 ---------------------------------------------------------------------------------
 (6) _oledC_DrawPoint                                      4     1      3    9446
                                             19 COMRAM     4     1      3
                 _oledC_sendColorInt
       _oledC_setColumnAddressBounds
          _oledC_setRowAddressBounds
 ---------------------------------------------------------------------------------
 (6) ___wmul                                               6     2      4    1067
                                              0 COMRAM     6     2      4
 ---------------------------------------------------------------------------------
 (4) _drawCharacter                                        2     0      2    8968
                                             58 COMRAM     2     0      2
                _oledC_DrawCharacter
 ---------------------------------------------------------------------------------
 (6) _oledC_DrawCharacter                                 18    12      6    8836
                                             32 COMRAM    18    12      6
                _oledC_DrawRectangle
 ---------------------------------------------------------------------------------
 (4) _drawBitmap                                           2     0      2    8848
                                             58 COMRAM     2     0      2
                   _oledC_DrawBitmap
 ---------------------------------------------------------------------------------
 (5) _oledC_DrawBitmap                                    24    16      8    8694
                                             32 COMRAM    24    16      8
                _oledC_DrawRectangle
 ---------------------------------------------------------------------------------
 (7) _oledC_DrawRectangle                                 13     8      5    7606
                                             19 COMRAM    13     8      5
                 _oledC_sendColorInt
       _oledC_setColumnAddressBounds
          _oledC_setRowAddressBounds
 ---------------------------------------------------------------------------------
 (3) _oledC_setRowAddressBounds                            8     7      1    2056
                                             11 COMRAM     8     7      1
                  _oledC_sendCommand
 ---------------------------------------------------------------------------------
 (3) _oledC_setColumnAddressBounds                         8     7      1    2102
                                             11 COMRAM     8     7      1
                  _oledC_sendCommand
 ---------------------------------------------------------------------------------
 (8) _oledC_sendColorInt                                   2     0      2    2290
                                             11 COMRAM     2     0      2
                   _exchangeTwoBytes
          _oledC_startWritingDisplay
 ---------------------------------------------------------------------------------
 (9) _oledC_startWritingDisplay                            0     0      0    1568
                  _oledC_sendCommand
 ---------------------------------------------------------------------------------
 (4) _oledC_sendCommand                                    4     1      3    1568
                                              7 COMRAM     4     1      3
                         _SPI1_Close *
                  _SPI1_ExchangeByte *
                    _SPI1_WriteBlock *
                         _oledC_open *
             _startStreamingIfNeeded
 ---------------------------------------------------------------------------------
 (5) _startStreamingIfNeeded                               1     1      0      66
                                              0 COMRAM     1     1      0
 ---------------------------------------------------------------------------------
 (5) _SPI1_WriteBlock                                      6     2      4     196
                                              1 COMRAM     6     2      4
                  _SPI1_ExchangeByte
 ---------------------------------------------------------------------------------
 (9) _exchangeTwoBytes                                     5     3      2     374
                                              2 COMRAM     5     3      2
                         _SPI1_Close *
                  _SPI1_ExchangeByte *
                         _oledC_open *
 ---------------------------------------------------------------------------------
 (5) _oledC_open                                           0     0      0     110
                          _SPI1_Open
 ---------------------------------------------------------------------------------
 (6) _SPI1_Open                                            2     2      0     110
                                              0 COMRAM     2     2      0
 ---------------------------------------------------------------------------------
 (6) _SPI1_ExchangeByte                                    1     1      0      22
                                              0 COMRAM     1     1      0
 ---------------------------------------------------------------------------------
 (5) _SPI1_Close                                           0     0      0       0
 ---------------------------------------------------------------------------------
 (2) _SPI1_Initialize                                      0     0      0       0
 ---------------------------------------------------------------------------------
 (2) _PMD_Initialize                                       0     0      0       0
 ---------------------------------------------------------------------------------
 (2) _PIN_MANAGER_Initialize                               0     0      0       0
 ---------------------------------------------------------------------------------
 (2) _OSCILLATOR_Initialize                                0     0      0       0
 ---------------------------------------------------------------------------------
 Estimated maximum stack depth 9
 ---------------------------------------------------------------------------------

 Call Graph Graphs:

 _main (ROOT)
   _SYSTEM_Initialize
     _OSCILLATOR_Initialize
     _PIN_MANAGER_Initialize
     _PMD_Initialize
     _SPI1_Initialize
     _oledC_example
       _oledC_eraseShape
         _drawBitmap *
           _oledC_DrawBitmap
             _oledC_DrawRectangle
               _oledC_sendColorInt
                 _exchangeTwoBytes
                   _SPI1_Close *
                   _SPI1_ExchangeByte *
                   _oledC_open *
                     _SPI1_Open
                 _oledC_startWritingDisplay
                   _oledC_sendCommand
                     _SPI1_Close *
                     _SPI1_ExchangeByte *
                     _SPI1_WriteBlock *
                       _SPI1_ExchangeByte
                     _oledC_open *
                     _startStreamingIfNeeded *
               _oledC_setColumnAddressBounds
                 _oledC_sendCommand
               _oledC_setRowAddressBounds
                 _oledC_sendCommand
         _drawCharacter *
           _oledC_DrawCharacter
             _oledC_DrawRectangle
         _drawCircle *
           _oledC_DrawCircle
             ___awdiv (ARG)
             ___wmul (ARG)
             _oledC_DrawPoint (ARG)
               _oledC_sendColorInt
               _oledC_setColumnAddressBounds
               _oledC_setRowAddressBounds
         _drawLine *
           _oledC_DrawLine
             ___awdiv
             _oledC_DrawCircle
             _oledC_DrawPoint
         _drawPoint *
           _oledC_DrawPoint
         _drawRectangle *
           _oledC_DrawRectangle
         _drawRing *
           _oledC_DrawRing
             ___wmul
             _oledC_DrawPoint
         _drawString *
           _oledC_DrawString
             _oledC_DrawCharacter
         _dummyshape *
         _oledC_getShape *
       _oledC_example_setup
         _oledC_addShape
           _oledC_createShape
         _oledC_redrawAll
           _oledC_redrawSome
             _drawBitmap *
             _drawCharacter *
             _drawCircle *
             _drawLine *
             _drawPoint *
             _drawRectangle *
             _drawRing *
             _drawString *
             _dummyshape *
         _oledC_setBackground
           _oledC_clearScreen
             _oledC_sendColorInt
             _oledC_setColumnAddressBounds
             _oledC_setRowAddressBounds
       _oledC_getShape
       _oledC_redrawIndex
         _drawBitmap *
         _drawCharacter *
         _drawCircle *
         _drawLine *
         _drawPoint *
         _drawRectangle *
         _drawRing *
         _drawString *
         _dummyshape *
     _oledC_setup
       _DELAY_microseconds
       _DELAY_milliseconds
       _oledC_setColumnAddressBounds
       _oledC_setDisplayOrientation
         _oledC_sendCommand
       _oledC_setRowAddressBounds
       _oledC_setSleepMode
         _oledC_sendCommand

 Address spaces:
Name               Size   Autos  Total    Cost      Usage
BIGRAM            20FF      0     1C0      71        5.3%
EEDATA             400      0       0       0        0.0%
BITBANK37          100      0       0      70        0.0%
BANK37             100      0       0      68        0.0%
BITBANK36          100      0       0      66        0.0%
BANK36             100      0       0      67        0.0%
BITBANK35          100      0       0      64        0.0%
BANK35             100      0       0      65        0.0%
BITBANK34          100      0       0      62        0.0%
BANK34             100      0       0      63        0.0%
BITBANK33          100      0       0      60        0.0%
BANK33             100      0       0      61        0.0%
BITBANK32          100      0       0      58        0.0%
BANK32             100      0       0      59        0.0%
BITBANK31          100      0       0      56        0.0%
BANK31             100      0       0      57        0.0%
BITBANK30          100      0       0      54        0.0%
BANK30             100      0       0      55        0.0%
BITBANK29          100      0       0      52        0.0%
BANK29             100      0       0      53        0.0%
BITBANK28          100      0       0      50        0.0%
BANK28             100      0       0      51        0.0%
BITBANK27          100      0       0      48        0.0%
BANK27             100      0       0      49        0.0%
BITBANK26          100      0       0      46        0.0%
BANK26             100      0       0      47        0.0%
BITBANK25          100      0       0      44        0.0%
BANK25             100      0       0      45        0.0%
BITBANK24          100      0       0      42        0.0%
BANK24             100      0       0      43        0.0%
BITBANK23          100      0       0      40        0.0%
BANK23             100      0       0      41        0.0%
BITBANK22          100      0       0      38        0.0%
BANK22             100      0       0      39        0.0%
BITBANK21          100      0       0      36        0.0%
BANK21             100      0       0      37        0.0%
BITBANK20          100      0       0      34        0.0%
BANK20             100      0       0      35        0.0%
BITBANK19          100      0       0      32        0.0%
BANK19             100      0       0      33        0.0%
BITBANK18          100      0       0      30        0.0%
BANK18             100      0       0      31        0.0%
BITBANK17          100      0       0      28        0.0%
BANK17             100      0       0      29        0.0%
BITBANK16          100      0       0      26        0.0%
BANK16             100      0       0      27        0.0%
BITBANK15          100      0       0      24        0.0%
BANK15             100      0       0      25        0.0%
BITBANK14          100      0       0      22        0.0%
BANK14             100      0       0      23        0.0%
BITBANK13          100      0       0      20        0.0%
BANK13             100      0       0      21        0.0%
BITBANK12          100      0       0      18        0.0%
BANK12             100      0       0      19        0.0%
BITBANK11          100      0       0      16        0.0%
BANK11             100      0       0      17        0.0%
BITBANK10          100      0       0      14        0.0%
BANK10             100      0       0      15        0.0%
BITBANK9           100      0       0      12        0.0%
BANK9              100      0       0      13        0.0%
BITBANK8           100      0       0      10        0.0%
BANK8              100      0       0      11        0.0%
BITBANK7           100      0       0       8        0.0%
BANK7              100      0       0       9        0.0%
BITBANK6           100      0       0       6        0.0%
BANK6              100      0       0       7        0.0%
BITBANK5            A0      0       0       4        0.0%
BANK5               A0      0       0       5        0.0%
BITCOMRAM           5F      0       0       0        0.0%
COMRAM              5F     4C      51       1       85.3%
BITSFR_5             0      0       0     200        0.0%
SFR_5                0      0       0     200        0.0%
BITSFR_4             0      0       0     200        0.0%
SFR_4                0      0       0     200        0.0%
BITSFR_3             0      0       0     200        0.0%
SFR_3                0      0       0     200        0.0%
BITSFR_2             0      0       0     200        0.0%
SFR_2                0      0       0     200        0.0%
BITSFR_1             0      0       0     200        0.0%
SFR_1                0      0       0     200        0.0%
BITSFR               0      0       0     200        0.0%
SFR                  0      0       0     200        0.0%
STACK                0      0       0       2        0.0%
NULL                 0      0       0       0        0.0%
ABS                  0      0      51      69        0.0%
DATA                 0      0     211       3        0.0%
CODE                 0      0       0       0        0.0%


Microchip Technology PIC18 Macro Assembler V2.32 build 20210201212658 
Symbol Table                                                                                   Fri Apr 16 15:11:07 2021

                         _OLED_FONT_WIDTH FDC3                         _SPI1_ExchangeByte 184A  
                      _SPI1_ExchangeBlock 000000             __end_of_OLEDC_COLOR_FIREBRICK FD69  
          __end_of_OLEDC_COLOR_BLUEVIOLET FDAF                                        l43 0270  
                                      l56 1610                                        l94 02FC  
          __end_of_OLEDC_COLOR_AQUAMARINE FDBD                              ___awdiv@sign 0506  
                      ?_SPI1_ExchangeByte 0501                       ___wmul@multiplicand 0503  
           __end_of_OLEDC_COLOR_INDIANRED FD4D             __end_of_OLEDC_COLOR_GOLDENROD FD5B  
            ?_oledC_setDisplayOrientation 0501                                       l100 042E  
                                     l110 058C                                       l104 043C  
                                     l122 078A                                       l124 07C0  
                                     l133 0F88                                       l142 09A4  
                                     l128 0F0C                                       l161 0642  
                                     l138 0936                                       l171 15C8  
                                     l148 12B8                                       l180 124E  
                                     l165 06B4                                       l174 1494  
                                     l183 11E2                                       l168 16C8  
                                     l512 14E2                                       l177 1438  
                                     l186 1108                                       l515 18E0  
                                     l540 1560                                       l189 1094  
                                     l525 131E                                       l533 17FA  
                                     l614 0B66                                       l630 1380  
                                     l518 0CEC                                       l542 157C  
                                     l607 1530                                       l617 0804  
                                     l641 1176                                       l618 08B8  
                                     l802 1908                                       l651 17CC  
                                     l565 1900                                       l821 1702  
                                     l911 1886                                       l648 179E  
                                     l665 18D2                                       l833 0E4C  
                                     l914 1848                                       l676 176C  
                                     l836 164E                                       l908 18A0  
                                     l941 18BA                                       l853 0EEC  
                                     l686 18E6                                       l951 1858  
                                     l679 13DC                                       l687 18E6  
                                     l792 0DA6                                       l856 1010  
                                     l953 1866                                       l945 0A86  
                                     l865 18F8                                       l954 186A  
                                     l948 1906                                       l984 1824  
                                     l969 168C                __end_of_DELAY_milliseconds 17FC  
           __end_of_OLEDC_COLOR_PEACHPUFF FCE1        __end_of_OLEDC_COLOR_LIGHTSLATEGRAY FD27  
              _OLEDC_COLOR_LIGHTSLATEGRAY FD25        __end_of_OLEDC_COLOR_LIGHTSLATEGREY FD25  
              _OLEDC_COLOR_LIGHTSLATEGREY FD23                             fp__oledC_open 0000  
           __end_of_OLEDC_COLOR_LIGHTBLUE FD3D             __end_of_OLEDC_COLOR_LIGHTCYAN FD39  
           __end_of_OLEDC_COLOR_LIGHTGRAY FD35             __end_of_OLEDC_COLOR_LIGHTGREY FD31  
           __end_of_OLEDC_COLOR_BURLYWOOD FDAB             __end_of_OLEDC_COLOR_LAWNGREEN FD41  
           __end_of_OLEDC_COLOR_LIGHTPINK FD2F             __end_of_OLEDC_COLOR_PALEGREEN FCE9  
                 __size_of_PMD_Initialize 0024                       ??_SPI1_ExchangeByte 0501  
           __end_of_OLEDC_COLOR_LIMEGREEN FD1D                                       prod 0004F3  
                           fp__dummyshape 0000                                       tosl 0004FD  
                                     wreg 0004E8                       oledC_DrawRing@color 051B  
          __end_of_OLEDC_COLOR_GHOSTWHITE FD5F        __end_of_OLEDC_COLOR_LIGHTSTEELBLUE FD23  
              _OLEDC_COLOR_LIGHTSTEELBLUE FD21                       oledC_DrawRing@width 051A  
          __end_of_OLEDC_COLOR_MEDIUMBLUE FD13             __end_of_OLEDC_COLOR_MINTCREAM FD01  
                                    l1215 0C2A                                      l3001 14AA  
                                    l3021 14D2                                      l3013 14B2  
                                    l3101 0C74                                      l2311 0D78  
                                    l3031 0E76                                      l3023 0E50  
                                    l3015 14BE                                      l3007 14AE  
                                    l3111 0CA8                                      l3103 0C78  
                                    l2321 0D86                                      l2313 0D7A  
                                    l2305 0CEE                                      l3033 0E7E  
                                    l3025 0E60                                      l3017 14C0  
                                    l3041 18D4                                      l3121 0CD2  
                                    l3113 0CB0                                      l3105 0C8A  
                                    l2323 0D88                                      l2315 0D7C  
                                    l2307 0D0A                                      l2331 1826  
                                    l3131 0FB2                                      l3051 0DCC  
                                    l3035 0E9E                                      l3027 0E6A  
                                    l3019 14D0                                      l3043 18DC  
                                    l3123 0CE4                                      l3115 0CB4  
                                    l3107 0C92                                      l3211 189C  
                                    l2333 186C                                      l2325 0D8A  
                                    l2317 0D7E                                      l2309 0D2E  
                                    l3133 0FCA                                      l3061 0E26  
                                    l3053 0DD8                                      l3045 0DAA  
                                    l3037 0ED8                                      l3029 0E72  
                                    l3125 0CE8                                      l3117 0CC6  
                                    l3109 0C96                                      l3141 17D2  
                                    l2327 0D8C                                      l2319 0D84  
                                    l2335 18A2                                      l3071 16E6  
                                    l3135 0FF8                                      l3127 0F8C  
                                    l3063 0E36                                      l3055 0E02  
                                    l3047 0DBA                                      l3039 0EDA  
                                    l3119 0CCE                                      l3151 1546  
                                    l3143 17E0                                      l3207 1888  
                                    l2329 0D92                                      l2337 18B8  
                                    l2601 1672                                      l3073 16EE  
                                    l3129 0F9A                                      l3057 0E04  
                                    l3049 0DC4                                      l3065 18EE  
                                    l3081 0C36                                      l3137 1614  
                                    l3153 1562                                      l3145 1532  
                                    l3161 178C                                      l3209 1898  
                                    l2611 0846                                      l2603 07C4  
                                    l3075 16F2                                      l3067 16CC  
                                    l3059 0E16                                      l3091 0C4E  
                                    l3083 0C3E                                      l3171 12CA  
                                    l3147 1536                                      l3139 17CE  
                                    l3163 17A0                                      l3155 1770  
                                    l2621 08B2                                      l2613 0848  
                                    l2701 0F14                                      l3069 16DC  
                                    l3093 0C56                                      l3085 0C42  
                                    l3181 1300                                      l3173 12CE  
                                    l3149 153E                                      l3165 17A4  
                                    l3157 1780                                      l2631 0B5A  
                                    l2623 0A8A                                      l2615 0882  
                                    l2607 0808                                      l2703 0F20  
                                    l2711 17FC                                      l3343 0232  
                                    l3095 0C5A                                      l3087 0C46  
                                    l3079 0C2C                                      l3183 1314  
                                    l3175 12DC                                      l3167 17B6  
                                    l3159 1788                                      l3191 1394  
                                    l2561 0A46                                      l2553 09A8  
                                    l2625 0AC6                                      l2617 0884  
                                    l2609 0836                                      l2641 110C  
                                    l2705 0F22                                      l2713 181C  
                                    l2721 0294                                      l2801 0BA8  
                                    l3097 0C6C                                      l3089 0C4A  
                                    l3185 1318                                      l3177 12EA  
                                    l3169 12BA                                      l3193 13A2  
                                    l2563 0A7C                                      l2555 09B8  
                                    l2627 0ACE                                      l2619 0886  
                                    l2635 18BC                                      l2651 1142  
                                    l2643 111C                                      l2707 0F54  
                                    l2731 02B2                                      l2723 029E  
                                    l2811 0BDE                                      l2803 0BBA  
                                    l3099 0C70                                      l3179 12FC  
                                    l3195 13A4                                      l3187 1382  
                                    l3283 18E2                                      l2573 184C  
                                    l2565 0A7E                                      l2557 0A1E  
                                    l2629 0B2E                                      l2581 14E6  
                                    l2637 18CE                                      l2661 1164  
                                    l2653 114C                                      l2645 1126  
                                    l2709 0F56                                      l2901 05A4  
                                    l2733 02B6                                      l2725 02A6  
                                    l2717 0274                                      l2813 0BF4  
                                    l2805 0BC2                                      l2821 0C0A  
                                    l3197 13B2                                      l3189 1388  
                                    l2575 1852                                      l2559 0A22  
                                    l2591 152C                                      l2583 14F8  
                                    l2639 18D0                                      l2655 1154  
                                    l2647 112E                                      l2671 1348  
                                    l2663 1322                                      l2911 05DC  
                                    l2903 05AE                                      l2743 0304  
                                    l2751 03D2                                      l2735 02C2  
                                    l2727 02AA                                      l2719 0284  
                                    l2823 0C1A                                      l2815 0BFC  
                                    l2807 0BCA                                      l2831 0440  
                                    l3199 13B8                                      l2593 1902  
                                    l2569 0A84                                      l2577 18FA  
                                    l2585 150A                                      l2681 173A  
                                    l2657 1158                                      l2649 1132  
                                    l2673 1358                                      l2665 1332  
                                    l2921 062E                                      l2913 05E8  
                                    l2905 05B6                                      l2761 08E8  
                                    l2753 03EC                                      l2745 03B4  
                                    l2737 02E8                                      l2729 02AE  
                                    l2825 0C22                                      l2817 0BFE  
                                    l2809 0BD8                                      l2841 0536  
                                    l2833 0450                                      l2595 1650  
                                    l2587 151C                                      l2683 174A  
                                    l2659 115E                                      l2675 1362  
                                    l2667 133C                                      l2931 068C  
                                    l2915 0618                                      l2907 05CA  
                                    l2763 08F4                                      l2691 15CC  
                                    l2755 0412                                      l2747 03B6  
                                    l2739 02EA                                      l2819 0C04  
                                    l2851 06B8                                      l2843 055C  
                                    l2835 0500                                      l2597 165C  
                                    l2589 1524                                      l2685 174E  
                                    l2677 136A                                      l2669 1344  
                                    l2933 068E                                      l2925 0650  
                                    l2917 0620                                      l2909 05D4  
                                    l2773 0944                                      l2781 0982  
                                    l2765 090C                                      l2693 15DC  
                                    l2749 03D0                                      l2757 0414  
                                    l2861 06E4                                      l2853 06C8  
                                    l2837 0526                                      l2845 055E  
                                    l2829 0432                                      l2941 157E  
                                    l2599 166E                                      l2679 136E  
                                    l2927 065C                                      l2935 06A0  
                                    l2919 062A                                      l2775 0972  
                                    l2767 0910                                      l2783 098A  
                                    l2759 08BC                                      l2695 15F0  
                                    l2791 0B82                                      l2871 0710  
                                    l2863 06EA                                      l2855 06D2  
                                    l2847 0578                                      l2839 0528  
                                    l2943 143A                                      l2951 1096  
                                    l2689 1762                                      l2697 0EF0  
                                    l2929 0682                                      l2937 06A2  
                                    l2777 0976                                      l2769 0920  
                                    l2793 0B86                                      l2785 0B68  
                                    l2881 0780                                      l2873 0724  
                                    l2865 06F0                                      l2857 06DA  
                                    l2849 057A                                      l2945 13DE  
                                    l2953 1012                                      l2961 0050  
                                    l2699 0F04                                      l2795 0B94  
                                    l2787 0B6C                                      l2883 0790  
                                    l2875 0734                                      l2867 06F4  
                                    l2859 06DE                                      l2891 1288  
                                    l2947 11E4                                      l2939 168E  
                                    l2971 00EE                                      l2963 0072  
                                    l2955 0002                                      l2797 0B9C  
                                    l2789 0B7A                                      l2877 074A  
                                    l2869 06FC                                      l2885 0792  
                                    l2893 128C                                      l2949 1178  
                                    l2981 0186                                      l2973 010A  
                                    l2965 008E                                      l2957 0014  
                                    l2799 0BA0                                      l2879 0772  
                                    l2895 1294                                      l2887 1252  
                                    l2983 01A8                                      l2975 012C  
                                    l2967 00B0                                      l2959 0024  
                                    l2897 0590                                      l2889 1256  
                                    l2985 01C4                                      l2977 0148  
                                    l2969 00CC                                      l2993 021E  
                                    l2899 0594                                      l2987 01E6  
                                    l2979 016A                                      l2989 0202  
                                    l2999 1496                                      u1100 151C  
                                    u1101 1518                                      u1110 168C  
                                    u1111 1688                                      u1130 0800  
                                    u1131 07FC                                      u1060 09B8  
                                    u1300 15EC                                      u1061 09B4  
                                    u1301 15E8                                      u1070 1866  
                                    u1150 0846                                      u1230 111C  
                                    u1310 0F54                                      u1071 1862  
                                    u1151 0842                                      u1231 1118  
                                    u1311 0F50                                      u1208 0AE0  
                                    u1080 14F8                                      u1128 07D6  
                                    u1240 1142                                      u1320 0F88  
                                    u1400 09A4                                      u1209 0AFC  
                                    u1081 14F4                                      u1129 07F0  
                                    u1241 113E                                      u1321 0F84  
                                    u1401 09A0                                      u1218 0B10  
                                    u1090 150A                                      u1250 1332  
                                    u1330 0294                                      u1410 0B7A  
                                    u1219 0B2C                                      u1091 1506  
                                    u1251 132E                                      u1331 0290  
                                    u1411 0B76                                      u1228 0B40  
                                    u1148 081A                                      u1260 1358  
                                    u1340 02F8                                      u1420 0B94  
                                    u1500 06C8                                      u1229 0B5A  
                                    u1149 0836                                      u1261 1354  
                                    u1341 02F4                                      u1421 0B90  
                                    u1501 06C4                                      _LATA 0004BE  
                                    u1190 0AC6                                      u1270 174A  
                                    u1350 03D0                                      u1430 0BBA  
                                    u1510 0710                                      _LATB 0004BF  
                                    u1191 0AC2                                      u1271 1746  
                                    u1351 03CC                                      u1431 0BB6  
                                    u1511 070C                                      u2047 17D8  
                                    _LATC 0004C0                                      u1168 0868  
                                    u1280 175E                                      u1600 0650  
                                    u1360 03EC                                      u1440 0BD8  
                                    u1520 0724                                      _LATD 0004C1  
                                    u1169 0882                                      u1281 175A  
                                    u1601 064C                                      u1361 03E8  
                                    u1441 0BD4                                      u1521 0720  
                                    u2057 1538                                      _LATE 0004C2  
                                    u1178 0898                                      u1610 06A0  
                                    u1290 15DC                                      u1370 042E  
                                    u1450 0BF4                                      u1530 0734  
                                    _LATF 0004C3                                      u1179 08B2  
                                    u1611 069C                                      u1291 15D8  
                                    u1371 042A                                      u1451 0BF0  
                                    u1531 0730                                      u1188 0A9C  
                                    u1620 06B4                                      u1380 0932  
                                    u1460 0C1A                                      u1540 0780  
                                    u1700 14D0                                      u1189 0AB6  
                                    u1621 06B0                                      u1381 092E  
                                    u1461 0C16                                      u1541 077C  
                                    u1701 14CC                                      u1390 0944  
                                    u1550 07C0                                      u1470 0536  
                                    u1710 14E2                                      u1391 0940  
                                    u1551 07BC                                      u1471 0532  
                                    u1631 006A                                      u1711 14DE  
                                    u1480 0578                                      u1560 12B8  
                                    u1800 16DC                                      u1720 0E60  
                                    u1481 0574                                      u1561 12B4  
                                    u1801 16D8                                      u1641 00A8  
                                    u1721 0E5C                                      u1570 05A4  
                                    u1490 058C                                      u1730 0E9E  
                                    u1571 05A0                                      u1491 0588  
                                    u1651 00E6                                      u1731 0E9A  
                                    u1580 05CA                                      u1581 05C6  
                                    u1661 0124                                      u1590 063E  
                                    u1750 0EEC                                      u1830 17FA  
                                    u1591 063A                                      u1671 0162  
                                    u1751 0EE8                                      u1831 17F6  
                                    u1760 0DBA                                      u1840 155C  
                                    u1681 01A0                                      u1761 0DB6  
                                    u1841 1558                                      u1818 0FE4  
                                    u1850 157C                                      u1819 0FF8  
                                    u1691 01DE                                      u1771 0DFA  
                                    u1851 1578                                      u1780 0E16  
                                    u1748 0EC4                                      u1828 163A  
                                    u1860 1780                                      u1781 0E12  
                                    u1749 0ED8                                      u1829 164E  
                                    u1861 177C                                      u1790 0E26  
                                    u1870 12CA                                      u1791 0E22  
                                    u1871 12C6                                      u1880 1314  
                                    u1881 1310                                      _PMD0 000060  
                                    _PMD1 000061                                      _PMD3 000063  
                                    _PMD4 000064                                      _PMD5 000065  
                                    _PMD6 000066                                      _PMD7 000067  
                                    _PMD8 000068                                      _WPUA 000401  
                                    _WPUB 000409                                      _WPUC 000411  
                                    _WPUD 000419                                      _WPUE 000421  
                                    _WPUF 000429             __end_of_OLEDC_COLOR_OLIVEDRAB FCF3  
           __end_of_OLEDC_COLOR_ORANGERED FCEF                                      _main 18E2  
          __end_of_OLEDC_COLOR_LIGHTCORAL FD3B                                      _font FDC6  
           __end_of_OLEDC_COLOR_MISTYROSE FCFF                           ??_drawCharacter 053D  
                                    _logo FFA1            __end_of_OLEDC_COLOR_LIGHTGREEN FD33  
                                    fsr1h 0004E2                                      fsr2h 0004DA  
                                    indf2 0004DF                                      fsr1l 0004E1  
                                    fsr2l 0004D9                      oledC_DrawRectangle@x 051E  
                    oledC_DrawRectangle@y 051F                           _oledC_DrawPoint 15CA  
           __end_of_OLEDC_COLOR_SLATEBLUE FCBF                                      prodh 0004F4  
                                    prodl 0004F3             __end_of_OLEDC_COLOR_SLATEGRAY FCBD  
           __end_of_OLEDC_COLOR_SLATEGREY FCBB                                      start FFFC  
               __end_of_SPI1_ExchangeByte 186C            _oledC_setRowAddressBounds$1636 050F  
          _oledC_setRowAddressBounds$1637 0511            __end_of_OLEDC_COLOR_PAPAYAWHIP FCE3  
                            ___param_bank 000000           __end_of_OLEDC_COLOR_FLORALWHITE FD67  
                 __end_of_OLED_DIM_HEIGHT FDC5             __end_of_OLEDC_COLOR_STEELBLUE FCB5  
                    oledC_DrawRing@radius 0519             __end_of_OLEDC_COLOR_ROYALBLUE FCD1  
                           drawLine@shape 053B            __size_of_OSCILLATOR_Initialize 001C  
           __end_of_OSCILLATOR_Initialize 1888             __end_of_OLEDC_COLOR_ROSYBROWN FCD3  
                     oledC_getShape@index 0505                               ?_SPI1_Close 0501  
         __end_of_OLEDC_COLOR_GREENYELLOW FD55                                     ?_main 0501  
                         __end_of___awdiv 0C2C          SPI1_Open@spi1UniqueConfiguration 0502  
                         ___awdiv@divisor 0503                           ___awdiv@counter 0505  
                                   _OSCEN 0000B3            __end_of_OLEDC_COLOR_SANDYBROWN FCCB  
           ??_oledC_setDisplayOrientation 050C                                     _TRISA 0004C6  
                                   _TRISB 0004C7                                     _TRISC 0004C8  
                                   _TRISD 0004C9                                     _TRISE 0004CA  
                                   _TRISF 0004CB                           drawCircle@shape 053B  
                            ?_oledC_setup 0501                        __size_of_SPI1_Open 00E2  
              __size_of_oledC_redrawIndex 003E             oledC_DrawBitmap@bitmap_length 0528  
              __size_of_oledC_sendCommand 00F8           __end_of_OLEDC_COLOR_FORESTGREEN FD65  
                        _oledC_DrawCircle 0272                          _oledC_DrawBitmap 058E  
           __end_of_OLEDC_COLOR_TURQUOISE FCAB                           drawBitmap@shape 053B  
         __end_of_OLEDC_COLOR_LIGHTSALMON FD2D        __size_of_oledC_startWritingDisplay 0018  
                                   pclath 0004FA                                     tablat 0004F5  
                    oledC_sendCommand@cmd 050B                           ??_drawRectangle 053D  
         __end_of_OLEDC_COLOR_LIGHTYELLOW FD21                          _oledC_DrawString 1250  
                    oledC_DrawPoint@color 0515         __end_of_OLEDC_COLOR_LAVENDERBLUSH FD43  
                                   plusw1 0004E3                                     plusw2 0004DB  
         __end_of_OLEDC_COLOR_NAVAJOWHITE FCFB                                     status 0004D8  
                 __end_of_OLED_FONT_WIDTH FDC4                __end_of_OLEDC_COLOR_BISQUE FDB7  
         __end_of_OLEDC_COLOR_SADDLEBROWN FCCF                  __size_of_SPI1_Initialize 001A  
              __end_of_OLEDC_COLOR_INDIGO FD4B              __size_of_oledC_example_setup 00C2  
              __end_of_OLEDC_COLOR_MAROON FD17                             drawRing@shape 053B  
              __end_of_OLEDC_COLOR_SALMON FCCD                __end_of_OLEDC_COLOR_ORCHID FCED  
              __end_of_OLEDC_COLOR_ORANGE FCF1                __end_of_OLEDC_COLOR_SIENNA FCC5  
              __end_of_OLEDC_COLOR_SILVER FCC3                           __initialization 1704  
              __end_of_OLEDC_COLOR_TOMATO FCAD                __end_of_OLEDC_COLOR_VIOLET FCA9  
              __end_of_OLEDC_COLOR_YELLOW FCA1                __end_of_OLEDC_COLOR_PURPLE FCD7  
          __end_of_OLEDC_COLOR_POWDERBLUE FCD9                              __end_of_main 18EE  
                            __end_of_font FFA1                              __end_of_logo FFFD  
                       oledC_redrawSome@i 0541                  oledC_eraseShape@indShape 0541  
                                  ??_main 054D            __end_of_OLEDC_COLOR_WHITESMOKE FCA3  
                           __activetblptr 000003                 oledC_example_setup@params 0542  
                     _oledC_addShape$1896 050D                   __end_of_oledC_DrawPoint 1612  
      __size_of_oledC_setRowAddressBounds 0062                                    _ACTCON 0000AC  
                        ___awdiv@dividend 0501       oledC_setColumnAddressBounds@payload 0511  
                                  _ANSELA 000400                                    _ANSELB 000408  
                                  _ANSELC 000410                                    _ANSELD 000418  
                                  _ANSELE 000420                                    _ANSELF 000428  
                                  _RB1I2C 000289                                    _RB2I2C 000288  
                                  _RC3I2C 000287                                    _RC4I2C 000286  
                                  _RC4PPS 000215                  oledC_eraseShape@ourShape 0542  
                                  _ODCONA 000402                                    _ODCONB 00040A  
                                  _ODCONC 000412                                    _RC6PPS 000217  
                                  _ODCOND 00041A                                    _ODCONE 000422  
                                  _ODCONF 00042A                                    _INLVLA 000404  
                                  _INLVLB 00040C                                    _INLVLC 000414  
                                  _INLVLD 00041C                                    _INLVLE 000424  
                                  _INLVLF 00042C                                    _OSCFRQ 0000B1  
       __end_of_oledC_startWritingDisplay 18D4                           oledC_DrawLine@D 0536  
                         oledC_DrawLine@x 0537                           oledC_DrawLine@y 0538  
    __size_of_oledC_setDisplayOrientation 002E                           oledC_DrawRing@d 051E  
               __size_of_oledC_eraseShape 0088                       __size_of_SPI1_Close 0006  
                         oledC_DrawRing@x 0521                           oledC_DrawRing@y 0522  
               oledC_createShape@newShape 0503             oledC_sendCommand@payload_size 050A  
              __size_of_SPI1_ExchangeByte 0022                         __end_of_SPI1_Open 0A88  
                        __end_of_drawLine 1250                          __end_of_drawRing 1496  
             __size_of_oledC_sendColorInt 0034                    __size_of_oledC_example 0066  
     __end_of_OLEDC_COLOR_MEDIUMSLATEBLUE FD0B               _OLEDC_COLOR_MEDIUMSLATEBLUE FD09  
                                  ___wmul 17FC                                 ??___awdiv 0505  
       __end_of_OLEDC_COLOR_LIGHTSEAGREEN FD2B         __end_of_OLEDC_COLOR_PALEGOLDENROD FCEB  
                                  clear_0 1720                          ___awdiv@quotient 0507  
                                  isa$std 000001                          _background_color 054D  
     __end_of_OLEDC_COLOR_MEDIUMVIOLETRED FD05               _OLEDC_COLOR_MEDIUMVIOLETRED FD03  
             __end_of_oledC_DrawCharacter 09A6                             _streamingMode 054F  
                          _PMD_Initialize 1826                           _oledC_redrawAll 18EE  
                            __pdataCOMRAM 0551                              __mediumconst FC74  
                                  tblptrh 0004F7                                    tblptrl 0004F6  
                                  tblptru 0004F8                  __end_of_OLED_FONT_HEIGHT FFFE  
               __size_of_exchangeTwoBytes 00E0                     oledC_sendColorInt@raw 050C  
                  oledC_DrawCharacter@i_x 052F                    oledC_DrawCharacter@i_y 0531  
             __end_of_OLEDC_COLOR_DARKRED FD83         __end_of_oledC_setRowAddressBounds 1382  
                ??_startStreamingIfNeeded 0501                         _SYSTEM_Initialize 1888  
             __end_of_OLEDC_COLOR_DIMGRAY FD6F               __end_of_OLEDC_COLOR_DIMGREY FD6D  
     __end_of_OLEDC_COLOR_MEDIUMTURQUOISE FD07               _OLEDC_COLOR_MEDIUMTURQUOISE FD05  
             __size_of_oledC_setSleepMode 0032                                __accesstop 0560  
                 __end_of__initialization 1734                  __size_of_SPI1_WriteBlock 003E  
                      fp__SPI1_WriteBlock 0000                  oledC_addShape@shape_type 0508  
             __end_of_OLEDC_COLOR_MAGENTA FD19                            _SPI1_ReadBlock 000000  
             __end_of_OLEDC_COLOR_CRIMSON FD9D                 __size_of_oledC_redrawSome 00A0  
             __end_of_OLEDC_COLOR_FUCHSIA FD63                        ?_SYSTEM_Initialize 0501  
                           ___rparam_used 000001               __end_of_OLEDC_COLOR_HOTPINK FD4F  
             __end_of_OLEDC_COLOR_OLDLACE FCF7               __end_of_OLEDC_COLOR_THISTLE FCAF  
                          __pcstackCOMRAM 0501               __end_of_OLEDC_COLOR_SKYBLUE FCC1  
       __end_of_OLEDC_COLOR_PALEVIOLETRED FCE5                       ??_SYSTEM_Initialize 054D  
                       ??_SPI1_Initialize 0501                        _DELAY_microseconds 1532  
                  __end_of_PMD_Initialize 184A                     SPI1_ExchangeByte@data 0501  
             __end_of_oledC_DrawRectangle 0F8A                        _spi1_configuration FC93  
                     ?_DELAY_microseconds 0501         __end_of_OLEDC_COLOR_PALETURQUOISE FCE7  
                           _oledC_example 12BA                        __size_of_drawPoint 003C  
                  oledC_addShape@newShape 050B                      __size_of_oledC_setup 005C  
                          drawPoint@shape 053B      __end_of_OLEDC_COLOR_MEDIUMAQUAMARINE FD15  
            _OLEDC_COLOR_MEDIUMAQUAMARINE FD13                 __end_of_SYSTEM_Initialize 18A2  
                        ?_oledC_DrawPoint 0514                     _OLEDC_COLOR_CADETBLUE FDA7  
                 _OLEDC_COLOR_DARKMAGENTA FD89                oledC_DrawRectangle@start_x 0520  
              oledC_DrawRectangle@start_y 0514                        _DELAY_milliseconds 17CE  
                 _OLEDC_COLOR_DEEPSKYBLUE FD6F              __size_of_oledC_setBackground 000E  
                          _SPI1_WriteByte 000000                     _OLEDC_COLOR_ALICEBLUE FDC1  
         __end_of_OLEDC_COLOR_YELLOWGREEN FC9F           __end_of_OLEDC_COLOR_SPRINGGREEN FCB7  
                    oledC_addShape@params 0509                      ??_DELAY_microseconds 0503  
                   _OLEDC_COLOR_DARKKHAKI FD8B                     _OLEDC_COLOR_DARKGREEN FD8F  
                 __size_of_oledC_DrawLine 010C                   __size_of_oledC_DrawRing 015E  
                     ?_DELAY_milliseconds 0501                     _OLEDC_COLOR_CHOCOLATE FDA3  
                   _OLEDC_COLOR_GAINSBORO FD5F                  __end_of_oledC_DrawCircle 0430  
                __end_of_oledC_DrawBitmap 06B6                                   ?___wmul 0501  
                 __end_of_oledC_redrawAll 18FA                  __end_of_oledC_DrawString 12BA  
                   _OLEDC_COLOR_FIREBRICK FD67                              ??_SPI1_Close 0501  
                         ?_PMD_Initialize 0501                           oledC_addShape@i 0510  
                        _OLEDC_COLOR_BLUE FDAF                          _OLEDC_COLOR_AQUA FDBD  
                        _OLEDC_COLOR_CYAN FD99                          _OLEDC_COLOR_GOLD FD5B  
                        _OLEDC_COLOR_GRAY FD57                          _OLEDC_COLOR_GREY FD51  
                        _OLEDC_COLOR_LIME FD1D                          _OLEDC_COLOR_NAVY FCF7  
                        _OLEDC_COLOR_TEAL FCAF                          _OLEDC_COLOR_PINK FCDB  
                        _OLEDC_COLOR_PERU FCDD                          _OLEDC_COLOR_PLUM FCD9  
                        _OLEDC_COLOR_SNOW FCB7                                _drawCircle 157E  
                              _drawBitmap 1012                     _OLEDC_COLOR_INDIANRED FD4B  
                   _OLEDC_COLOR_GOLDENROD FD59                       _oledC_example_setup 0C2C  
                    ??_DELAY_milliseconds 0503                                   _OSCCON1 0000AD  
                                 _OSCCON3 0000AF                            ?_oledC_example 0501  
                                 _SPI1CLK 00008C                     _OLEDC_COLOR_PEACHPUFF FCDF  
                                 _SPI1RXB 000080                                   _SPI1TXB 000081  
                                 _OSCTUNE 0000B0                     _OLEDC_COLOR_LIGHTBLUE FD3B  
                   _OLEDC_COLOR_LIGHTCYAN FD37                     _OLEDC_COLOR_LIGHTGRAY FD33  
                   _OLEDC_COLOR_LIGHTGREY FD2F                     _OLEDC_COLOR_BURLYWOOD FDA9  
                   _OLEDC_COLOR_LAWNGREEN FD3F                                   _SLRCONA 000403  
                                 _SLRCONB 00040B                                   _SLRCONC 000413  
                                 _SLRCOND 00041B                                   _SLRCONE 000423  
                                 _SLRCONF 00042B                     _OLEDC_COLOR_LIGHTPINK FD2D  
                   _OLEDC_COLOR_PALEGREEN FCE7                   __size_of_oledC_addShape 00A6  
                   _OLEDC_COLOR_LIMEGREEN FD1B                                _drawString 1096  
                        oledC_DrawLine@x0 0533                          oledC_DrawLine@x1 0527  
                        oledC_DrawLine@y0 0526                          oledC_DrawLine@y1 0528  
                        oledC_DrawLine@dx 0534                          oledC_DrawLine@dy 0535  
                               ?_drawLine 053B                                 ?_drawRing 053B  
                        oledC_DrawRing@x0 0520                          oledC_DrawRing@y0 0518  
              oledC_eraseShape@eraseColor 053D                          oledC_DrawPoint@x 0517  
                        oledC_DrawPoint@y 0514                     _OLEDC_COLOR_MINTCREAM FCFF  
         __size_of_startStreamingIfNeeded 004E                        oledC_clearScreen@x 0514  
                      oledC_clearScreen@y 0515                          _oledC_eraseShape 0F8A  
                   _OLEDC_COLOR_OLIVEDRAB FCF1                        __end_of_SPI1_Close 1908  
                 __size_of_oledC_getShape 003A                     __end_of_drawCharacter 11E4  
                    ?_oledC_example_setup 0501                     _OLEDC_COLOR_ORANGERED FCED  
                   _OLEDC_COLOR_MISTYROSE FCFD                                   __Hparam 0000  
                                 __Lparam 0000  __end_of_OLEDC_COLOR_LIGHTGOLDENRODYELLOW FD37  
        _OLEDC_COLOR_LIGHTGOLDENRODYELLOW FD35                     _OLEDC_COLOR_SLATEBLUE FCBD  
                   _OLEDC_COLOR_SLATEGRAY FCBB                     _OLEDC_COLOR_SLATEGREY FCB9  
                       ??_SPI1_WriteBlock 0506                         __end_of_drawPoint 16CA  
                                 ___awdiv 0B68                           __size_of___wmul 002A  
               _OLEDC_COLOR_LAVENDERBLUSH FD41                                _oledC_open 18FA  
                      _oledC_DrawLine$322 0531                                   __pcinit 1704  
                   _OLEDC_COLOR_STEELBLUE FCB3                                   __ramtop 2600  
                              _dummyshape 1908                        _OLEDC_COLOR_BISQUE FDB5  
                                 __ptext0 18E2                                   __ptext1 1888  
                                 __ptext2 1382                                   __ptext3 176E  
                                 __ptext4 17A0                                   __ptext5 17CE  
                                 __ptext6 1532                                   __ptext7 12BA  
                                 __ptext8 1612                                   __ptext9 0C2C  
                   _OLEDC_COLOR_ROYALBLUE FCCF                        _OLEDC_COLOR_INDIGO FD49  
                SPI1_WriteBlock@blockSize 0504                        _OLEDC_COLOR_MAROON FD15  
                      _OLEDC_COLOR_SALMON FCCB                        _OLEDC_COLOR_ORCHID FCEB  
                      _OLEDC_COLOR_ORANGE FCEF                        _OLEDC_COLOR_SIENNA FCC3  
                   _OSCILLATOR_Initialize 186C                     _OLEDC_COLOR_ROSYBROWN FCD1  
                      _OLEDC_COLOR_SILVER FCC1                        _OLEDC_COLOR_TOMATO FCAB  
                      _OLEDC_COLOR_VIOLET FCA7                        _OLEDC_COLOR_YELLOW FC9F  
                      _OLEDC_COLOR_PURPLE FCD5                      fp__SPI1_ExchangeByte 0000  
                ??_PIN_MANAGER_Initialize 0501                          _exchangeTwoBytes 0A88  
                 _OLEDC_COLOR_FLORALWHITE FD65                __size_of_SYSTEM_Initialize 001A  
                              ??_drawLine 053D                                ??_drawRing 053D  
                    end_of_initialization 1734                    oledC_DrawCircle@radius 0519  
                   _OLEDC_COLOR_TURQUOISE FCA9                    oledC_redrawSome@endInd 053D  
                 _OLEDC_COLOR_GREENYELLOW FD53                     __end_of_drawRectangle 143A  
                        _oledC_redrawSome 0E4E                         __end_of_spiMaster FC93  
                   ??_oledC_example_setup 0542                        oledC_DrawCircle@x0 0523  
                      oledC_DrawCircle@y0 0518                    oledC_DrawBitmap@bitNum 0538  
                  oledC_DrawBitmap@bitmap 0526                        oledC_DrawBitmap@sx 0524  
                      oledC_DrawBitmap@sy 0525                                 _SPI1TCNTL 000082  
                 _OLEDC_COLOR_FORESTGREEN FD63              oledC_setRowAddressBounds@max 050C  
            oledC_setRowAddressBounds@min 0513                    oledC_DrawBitmap@curr_x 0535  
                  oledC_DrawBitmap@curr_y 0534                                   postdec1 0004E5  
                                 postdec2 0004DD                                   postinc0 0004EE  
                                 postinc1 0004E6                                   postinc2 0004DE  
                  oledC_DrawBitmap@rowNum 0536                                 _SPI1_Open 09A6  
       _oledC_setColumnAddressBounds$1642 050D         _oledC_setColumnAddressBounds$1643 050F  
                        ?_oledC_redrawAll 0501          oledC_setRowAddressBounds@payload 050D  
                 _OLEDC_COLOR_LIGHTSALMON FD2B                     oledC_DrawString@color 0538  
                  _startStreamingIfNeeded 14E4                            _OLED_DIM_WIDTH FDC5  
     __end_of_oledC_setDisplayOrientation 17CE               _oledC_setDisplayOrientation 17A0  
                 _OLEDC_COLOR_LIGHTYELLOW FD1F                   _OLEDC_COLOR_NAVAJOWHITE FCF9  
                         ??_oledC_example 054B          __end_of_OLEDC_COLOR_DARKSEAGREEN FD7F  
                             ?_drawCircle 053B                               ?_drawBitmap 053B  
            __end_of_OLEDC_COLOR_DARKBLUE FD99              __end_of_OLEDC_COLOR_DEEPPINK FD73  
            __end_of_OLEDC_COLOR_DARKCYAN FD97              __end_of_OLEDC_COLOR_DARKGRAY FD93  
            __end_of_OLEDC_COLOR_DARKGREY FD8F                   _OLEDC_COLOR_SADDLEBROWN FCCD  
                               _TRISCbits 0004C8     __end_of_OLEDC_COLOR_MEDIUMSPRINGGREEN FD09  
           _OLEDC_COLOR_MEDIUMSPRINGGREEN FD07                 _OLEDC_COLOR_LIGHTSEAGREEN FD29  
                             ?_drawString 053B                 _OLEDC_COLOR_PALEGOLDENROD FCE9  
            __end_of_OLEDC_COLOR_CORNSILK FD9F                      oledC_setSleepMode@on 050C  
            __end_of_OLEDC_COLOR_LAVENDER FD45                  oledC_setBackground@color 0516  
            __end_of_OLEDC_COLOR_HONEYDEW FD51              __end_of_OLEDC_COLOR_MOCCASIN FCFD  
            __end_of_OLEDC_COLOR_SEAGREEN FCC9                           _SPI1_Initialize 18A2  
            __end_of_OLEDC_COLOR_SEASHELL FCC7                     _oledC_redrawSome$1908 053F  
              ?_oledC_startWritingDisplay 0501                __end_of_oledC_sendColorInt 176E  
                          _oledC_DrawLine 06B6                            _oledC_DrawRing 0430  
    __end_of_oledC_setColumnAddressBounds 1178     __size_of_oledC_setColumnAddressBounds 006E  
            _oledC_setColumnAddressBounds 110A                    __end_of_OLED_DIM_WIDTH FDC6  
               startStreamingIfNeeded@cmd 0501                                ?_SPI1_Open 0501  
                          __end_of___wmul 1826                               ?_oledC_open 0501  
                           __pidataCOMRAM 190A                               ?_dummyshape 053B  
            oledC_DrawBitmap@bitmap_width 0537         __end_of_OLEDC_COLOR_DARKGOLDENROD FD95  
                     _oledC_setBackground 18D4                    ?_OSCILLATOR_Initialize 0501  
                      oledC_DrawString@sx 0534                        oledC_DrawString@sy 0535  
                      _exampleInitialized 0550                       start_initialization 1704  
      __end_of_OLEDC_COLOR_CORNFLOWERBLUE FDA1                _OLEDC_COLOR_CORNFLOWERBLUE FD9F  
      __end_of_OLEDC_COLOR_BLANCHEDALMOND FDB3                _OLEDC_COLOR_BLANCHEDALMOND FDB1  
                           fp__SPI1_Close 0000                 _OLEDC_COLOR_PALEVIOLETRED FCE3  
         __size_of_PIN_MANAGER_Initialize 00BA                            _oledC_addShape 0DA8  
              __end_of_oledC_setSleepMode 17A0              __size_of_oledC_DrawCharacter 00EC  
                 oledC_addShape@drawIndex 050F                      ?_oledC_setBackground 0516  
                  __end_of_oledC_DrawLine 07C2                    __end_of_oledC_DrawRing 058E  
              ?_oledC_setRowAddressBounds 050C                  __end_of_OLEDC_COLOR_BLUE FDB1  
                __end_of_OLEDC_COLOR_AQUA FDBF                  __end_of_OLEDC_COLOR_CYAN FD9B  
                __end_of_OLEDC_COLOR_GOLD FD5D                  __end_of_OLEDC_COLOR_GRAY FD59  
                __end_of_OLEDC_COLOR_GREY FD53                  __end_of_OLEDC_COLOR_LIME FD1F  
                __end_of_OLEDC_COLOR_NAVY FCF9                  __end_of_OLEDC_COLOR_TEAL FCB1  
                __end_of_OLEDC_COLOR_PINK FCDD                  __end_of_OLEDC_COLOR_PERU FCDF  
                          _oledC_getShape 16CA                  __end_of_OLEDC_COLOR_PLUM FCDB  
                __end_of_OLEDC_COLOR_SNOW FCB9         __end_of_OLEDC_COLOR_DARKSLATEBLUE FD7D  
               _OLEDC_COLOR_PALETURQUOISE FCE5         __end_of_OLEDC_COLOR_DARKSLATEGRAY FD7B  
       __end_of_OLEDC_COLOR_DARKSLATEGREY FD79                       __size_of_drawCircle 004C  
                     __size_of_drawBitmap 0084                          ??_PMD_Initialize 0501  
                                ??___wmul 0505                         ?_oledC_DrawCircle 0518  
                       ?_oledC_DrawBitmap 0521                       __size_of_drawString 0074  
           ?_oledC_setColumnAddressBounds 050C                        ??_oledC_DrawCircle 051C  
                      ??_oledC_DrawBitmap 0529                         ?_oledC_DrawString 0533  
                   oledC_DrawCharacter@ch 0524                  __end_of_oledC_eraseShape 1012  
                   oledC_DrawCharacter@sx 0522                     oledC_DrawCharacter@sy 0523  
                           ??_oledC_setup 0514                               __pbssBIGRAM 2440  
                      ??_oledC_DrawString 053A                    __end_of_oledC_addShape 0E4E  
                           _SPI1_ReadByte 000000                               __pbssCOMRAM 054D  
                    _oledC_DrawCircle$300 051D          __end_of_OLEDC_COLOR_ANTIQUEWHITE FDC1  
       __end_of_OLEDC_COLOR_DARKTURQUOISE FD77              __size_of_oledC_DrawRectangle 009C  
                 __end_of_SPI1_Initialize 18BC                      _oledC_DrawBitmap$363 0530  
                    _oledC_DrawBitmap$364 0532                  _OLEDC_COLOR_DARKSEAGREEN FD7D  
                         _SPI1_WriteBlock 1650                     ??_oledC_setBackground 0518  
                  __end_of_oledC_getShape 1704                         __size_of_drawLine 006C  
                 oledC_createShape@params 0501                         __size_of_drawRing 005C  
                     __size_of_oledC_open 0008                           ?_oledC_DrawLine 0526  
                         ?_oledC_DrawRing 0518                       __size_of_dummyshape 0002  
                  _OLEDC_COLOR_CHARTREUSE FDA5                  __size_of_oledC_DrawPoint 0048  
                  _OLEDC_COLOR_DARKSALMON FD7F                    _OLEDC_COLOR_DARKORCHID FD83  
                  _OLEDC_COLOR_DARKORANGE FD85               __size_of_DELAY_microseconds 004C  
                    _OLEDC_COLOR_DARKBLUE FD97                      _OLEDC_COLOR_DEEPPINK FD71  
                  _PIN_MANAGER_Initialize 0CEE                      _OLEDC_COLOR_DARKCYAN FD95  
                  _OLEDC_COLOR_DARKVIOLET FD73                      _OLEDC_COLOR_DARKGRAY FD91  
                    _OLEDC_COLOR_DARKGREY FD8D                  __end_of_exchangeTwoBytes 0B68  
                           __pmediumconst FC74                                  ?___awdiv 0501  
                             ??_SPI1_Open 0501                           _OLEDC_COLOR_RED FCD3  
                         _OLEDC_COLOR_TAN FCB1                      _OLEDC_COLOR_CORNSILK FD9D  
                  _OLEDC_COLOR_DODGERBLUE FD69                      _OLEDC_COLOR_LAVENDER FD43  
                               _drawPoint 168E                      _OLEDC_COLOR_HONEYDEW FD4F  
                       _oledC_clearScreen 1496                      _OLEDC_COLOR_MOCCASIN FCFB  
                __end_of_oledC_redrawSome 0EEE            DELAY_microseconds@microseconds 0501  
                    _OLEDC_COLOR_SEAGREEN FCC7                      _OLEDC_COLOR_SEASHELL FCC5  
                 _OLEDC_COLOR_YELLOWGREEN FC9D                        ?_oledC_clearScreen 0501  
                  _OLEDC_COLOR_BLUEVIOLET FDAD                           ?_oledC_addShape 0508  
                 _OLEDC_COLOR_SPRINGGREEN FCB5                    _OLEDC_COLOR_AQUAMARINE FDBB  
             __size_of_DELAY_milliseconds 002E                         _OLEDC_COLOR_BEIGE FDB7  
                       _OLEDC_COLOR_BLACK FDB3                         _OLEDC_COLOR_CORAL FDA1  
                       _OLEDC_COLOR_KHAKI FD45                       ??_oledC_clearScreen 0514  
                       _OLEDC_COLOR_BROWN FDAB                         _OLEDC_COLOR_GREEN FD55  
                     __end_of_oledC_setup 13DE                         _OLEDC_COLOR_LINEN FD19  
                       _OLEDC_COLOR_AZURE FDB9                         _OLEDC_COLOR_OLIVE FCF3  
                       _OLEDC_COLOR_IVORY FD47                         _OLEDC_COLOR_WHEAT FCA5  
                       _OLEDC_COLOR_WHITE FCA3                           ?_oledC_getShape 0501  
                          ___wmul@product 0505                     oledC_DrawCircle@color 051A  
                                _LATAbits 0004BE                                  _LATBbits 0004BF  
                   oledC_DrawCircle@xCurr 0521                                  _LATDbits 0004C1  
                  _OLEDC_COLOR_GHOSTWHITE FD5D                    _OLEDC_COLOR_MEDIUMBLUE FD11  
                            _SPI1CON0bits 000084                   _oledC_setSleepMode$1647 050D  
                       oledC_DrawCircle@d 051F                                  _SPI1BAUD 000089  
                                _PIR3bits 0004B1                         oledC_DrawCircle@x 0524  
                       oledC_DrawCircle@y 0525                                  _SPI1CON0 000084  
                                _SPI1CON1 000085                                  _SPI1CON2 000086  
                       oledC_DrawBitmap@x 052B                         oledC_DrawBitmap@y 0521  
                   oledC_DrawBitmap@color 0522                                 _spiMaster FC75  
          DELAY_milliseconds@milliseconds 0501                   ?_startStreamingIfNeeded 0501  
                  _OLEDC_COLOR_LIGHTCORAL FD39                    _OLEDC_COLOR_LIGHTGREEN FD31  
                       _oledC_createShape 0000                 __end_of_oledC_clearScreen 14E4  
                              ?_drawPoint 053B                        ?_oledC_createShape 0501  
                  _OLEDC_COLOR_PAPAYAWHIP FCE1                         ___wmul@multiplier 0501  
                            ??_drawCircle 053D          __end_of_OLEDC_COLOR_MEDIUMORCHID FD11  
                            ??_drawBitmap 053D        __end_of_OLEDC_COLOR_DARKOLIVEGREEN FD89  
              _OLEDC_COLOR_DARKOLIVEGREEN FD87            ??_oledC_setColumnAddressBounds 050D  
        __end_of_OLEDC_COLOR_MEDIUMPURPLE FD0F                   __end_of_SPI1_WriteBlock 168E  
                  __size_of_drawCharacter 006C                          fp__drawCharacter 0000  
               __end_of_OLEDC_COLOR_BEIGE FDB9                 __end_of_OLEDC_COLOR_BLACK FDB5  
                     ??_oledC_createShape 0505                           dummyshape@shape 053B  
               __end_of_OLEDC_COLOR_CORAL FDA3                 __end_of_OLEDC_COLOR_KHAKI FD47  
               __end_of_OLEDC_COLOR_BROWN FDAD                 __end_of_OLEDC_COLOR_GREEN FD57  
               __end_of_OLEDC_COLOR_LINEN FD1B                 __end_of_OLEDC_COLOR_AZURE FDBB  
                            ??_drawString 053D                 __end_of_OLEDC_COLOR_OLIVE FCF5  
               __end_of_OLEDC_COLOR_IVORY FD49                 __end_of_OLEDC_COLOR_WHEAT FCA7  
               __end_of_OLEDC_COLOR_WHITE FCA5                          ?_SPI1_Initialize 0501  
             __end_of_oledC_example_setup 0CEE                    _OLEDC_COLOR_SANDYBROWN FCC9  
                       oledC_DrawString@x 053A                         oledC_DrawString@y 0533  
                _OLEDC_COLOR_ANTIQUEWHITE FDBF               ??_oledC_startWritingDisplay 050C  
                 __end_of_OLEDC_COLOR_RED FCD5          __end_of_OLEDC_COLOR_LEMONCHIFFON FD3F  
                 __end_of_OLEDC_COLOR_TAN FCB3                                  __Hrparam 0000  
          __end_of_startStreamingIfNeeded 1532        __end_of_OLEDC_COLOR_MEDIUMSEAGREEN FD0D  
              _OLEDC_COLOR_MEDIUMSEAGREEN FD0B                                  __Lrparam 0000  
                      __end_of_drawCircle 15CA                        __end_of_drawBitmap 1096  
               __end_of_oledC_createShape 0272                   ??_OSCILLATOR_Initialize 0501  
               oledC_redrawIndex@indShape 053D                       _oledC_DrawCharacter 08BA  
                    oledC_DrawCharacter@f 052B                          __size_of___awdiv 00C4  
                    oledC_DrawCharacter@x 052E                         ??_oledC_DrawPoint 0517  
                    oledC_DrawCharacter@y 0521                              ??_oledC_open 0503  
                      __end_of_drawString 110A          __end_of_OLEDC_COLOR_MIDNIGHTBLUE FD03  
                            ??_dummyshape 053D          __end_of_OLEDC_COLOR_LIGHTSKYBLUE FD29  
                      _oledC_sendColorInt 173A                    _OLEDC_COLOR_POWDERBLUE FCD7  
                  __size_of_drawRectangle 005C                          fp__drawRectangle 0000  
                             _oledC_setup 1382                  __size_of_oledC_redrawAll 000C  
                   __end_of_oledC_example 1320                       _OLEDC_COLOR_DARKRED FD81  
                     ?_oledC_sendColorInt 050C                       _OLEDC_COLOR_DIMGRAY FD6D  
                     _OLEDC_COLOR_DIMGREY FD6B                                  __ptext10 18D4  
                                __ptext11 1496                                  __ptext20 1096  
                                __ptext12 18EE                                  __ptext21 1178  
                                __ptext13 0E4E                                  __ptext30 0B68  
                                __ptext22 11E4                                  __ptext14 0DA8  
                                __ptext31 0272                                  __ptext23 13DE  
                                __ptext15 0000                                  __ptext40 18BC  
                                __ptext32 15CA                                  __ptext24 143A  
                                __ptext16 0F8A                                  __ptext41 07C2  
                                __ptext33 17FC                                  __ptext25 157E  
                                __ptext17 16CA                                  __ptext50 1826  
                                __ptext42 14E4                                  __ptext34 08BA  
                                __ptext26 1908                                  __ptext18 168E  
                                __ptext51 0CEE                                  __ptext43 1650  
                                __ptext35 058E                                  __ptext27 1250  
                                __ptext19 1012                                  __ptext52 186C  
                                __ptext44 0A88                                  __ptext36 0EEE  
                                __ptext28 0430                                  __ptext53 0000  
                                __ptext45 18FA                                  __ptext37 1320  
                                __ptext29 06B6                                  __ptext46 09A6  
                                __ptext38 110A                                  __ptext47 184A  
                                __ptext39 173A                                  __ptext48 1902  
                                __ptext49 18A2                  oledC_sendCommand@payload 0508  
                     _OLEDC_COLOR_MAGENTA FD17                       _OLEDC_COLOR_CRIMSON FD9B  
                  _OLEDC_COLOR_WHITESMOKE FCA1                                  _drawLine 11E4  
                     _OLEDC_COLOR_FUCHSIA FD61                                  _drawRing 143A  
                    ?_oledC_DrawCharacter 0521         oledC_DrawCharacter@curr_char_byte 052D  
                     _OLEDC_COLOR_HOTPINK FD4D                       _OLEDC_COLOR_OLDLACE FCF5  
               _OLEDC_COLOR_DARKGOLDENROD FD93                        drawRectangle@shape 053B  
                     _OLEDC_COLOR_THISTLE FCAD                           drawString@shape 053B  
                           __size_of_main 000C                        __end_of_oledC_open 1902  
                     _OLEDC_COLOR_SKYBLUE FCBF               ??_oledC_setRowAddressBounds 050D  
                oledC_redrawSome@startInd 053E                        __end_of_dummyshape 190A  
                    oledC_DrawCircle@yMax 0522                             _drawCharacter 1178  
                    ??_oledC_sendColorInt 050E                        _oledC_setSleepMode 176E  
                                isa$xinst 000000                       _oledC_DrawRectangle 0EEE  
              __size_of_oledC_clearScreen 004E                       _oledC_getShape$1889 0503  
                oledC_DrawRectangle@end_x 0515                  oledC_DrawRectangle@end_y 0516  
                oledC_DrawRectangle@color 0517                               ??_drawPoint 053D  
                     ?_oledC_setSleepMode 0501                 _OLEDC_COLOR_DARKSLATEBLUE FD7B  
               _OLEDC_COLOR_DARKSLATEGRAY FD79                 _OLEDC_COLOR_DARKSLATEGREY FD77  
               _oledC_startWritingDisplay 18BC                           _allParsedShapes 2440  
                       ?_oledC_eraseShape 053D                          ?_SPI1_WriteBlock 0502  
                      ??_oledC_eraseShape 053F                      SPI1_WriteBlock@block 0502  
                    ?_oledC_DrawRectangle 0514                 __size_of_oledC_DrawCircle 01BE  
               __size_of_oledC_DrawBitmap 0128                          ??_oledC_DrawLine 052C  
                        ??_oledC_DrawRing 051D                  _OLEDC_COLOR_MEDIUMORCHID FD0F  
                   ??_oledC_DrawCharacter 0527                         _oledC_redrawIndex 1612  
                       _oledC_sendCommand 07C2                  _OLEDC_COLOR_MEDIUMPURPLE FD0D  
                      ?_oledC_redrawIndex 0501                      ??_oledC_setSleepMode 050C  
               __size_of_oledC_DrawString 006A                        ?_oledC_sendCommand 0508  
                 ?_PIN_MANAGER_Initialize 0501                             _drawRectangle 13DE  
                          ?_drawCharacter 053B                 oledC_eraseShape@saveColor 053F  
                     ??_oledC_redrawIndex 053D                 _OLEDC_COLOR_DARKTURQUOISE FD75  
                     ??_oledC_sendCommand 050B                __size_of_oledC_createShape 0272  
                              _SPI1SCKPPS 00026A                                _SPI1SDIPPS 00026B  
                       ?_exchangeTwoBytes 0503                     exchangeTwoBytes@byte1 0507  
                   exchangeTwoBytes@byte2 0503                  _OLEDC_COLOR_LEMONCHIFFON FD3D  
         __end_of_OLEDC_COLOR_DARKMAGENTA FD8B                        ??_exchangeTwoBytes 0505  
                        ??_oledC_addShape 050B           __end_of_OLEDC_COLOR_DEEPSKYBLUE FD71  
                 oledC_DrawBitmap@rowBits 052C                       SPI1_WriteBlock@data 0506  
                              _SPI1_Close 1902                 _oledC_setRowAddressBounds 1320  
                      drawCharacter@shape 053B           oledC_setColumnAddressBounds@max 050C  
         oledC_setColumnAddressBounds@min 0513                           _OLED_DIM_HEIGHT FDC4  
                       ?_oledC_redrawSome 053D                  _OLEDC_COLOR_MIDNIGHTBLUE FD01  
               __end_of_oledC_redrawIndex 1650                  _OLEDC_COLOR_LIGHTSKYBLUE FD27  
                      ??_oledC_redrawSome 053E             __end_of_OLEDC_COLOR_CADETBLUE FDA9  
                   ??_oledC_DrawRectangle 0519               __end_of_oledC_setBackground 18E2  
               __end_of_oledC_sendCommand 08BA                          ??_oledC_getShape 0503  
                  oledC_DrawString@string 0536                             fp__drawCircle 0000  
                           fp__drawBitmap 0000            __end_of_OLEDC_COLOR_CHARTREUSE FDA7  
                     oledC_example@moveIt 054B            __end_of_OLEDC_COLOR_DARKSALMON FD81  
          __end_of_OLEDC_COLOR_DARKORCHID FD85            __end_of_OLEDC_COLOR_DARKORANGE FD87  
          __end_of_PIN_MANAGER_Initialize 0DA8            __end_of_OLEDC_COLOR_DARKVIOLET FD75  
             oledC_createShape@shape_type 0507             __end_of_OLEDC_COLOR_ALICEBLUE FDC3  
                       ??_oledC_redrawAll 0542                       oledC_DrawLine@color 052A  
                oledC_DrawCharacter@color 0525                             fp__drawString 0000  
              __end_of_DELAY_microseconds 157E             __end_of_OLEDC_COLOR_DARKKHAKI FD8D  
           __end_of_OLEDC_COLOR_DARKGREEN FD91                       oledC_DrawLine@width 0529  
                      oledC_example@shift 0551                            ?_drawRectangle 053B  
                            fp__drawPoint 0000             __end_of_OLEDC_COLOR_CHOCOLATE FDA5  
           __end_of_OLEDC_COLOR_GAINSBORO FD61                               fp__drawLine 0000  
                             fp__drawRing 0000                __end_of_spi1_configuration FC9D  
          __end_of_OLEDC_COLOR_DODGERBLUE FD6B        oledC_setDisplayOrientation@payload 050C  
                        _OLED_FONT_HEIGHT FFFD  
